(S'bace4f7ab25e722a82b04a713d67254d'
p1
(ihappydoclib.parseinfo.moduleinfo
ModuleInfo
p2
(dp3
S'_namespaces'
p4
((dp5
(dp6
S'from_lx200_righta'
p7
(ihappydoclib.parseinfo.functioninfo
FunctionInfo
p8
(dp9
g4
((dp10
(dp11
tp12
sS'_exception_info'
p13
(dp14
sS'_parameter_names'
p15
(S'resp'
p16
tp17
sS'_parameter_info'
p18
(dp19
g16
(NNNtp20
ssS'_filename'
p21
S'c:\\python24\\lib\\site-packages\\lx200\\LX200Utils.py'
p22
sS'_docstring'
p23
S'Converts an lx200 righta response into an angle in degrees'
p24
sS'_name'
p25
g7
sS'_parent'
p26
g2
sS'_comment_info'
p27
(dp28
sS'_configuration_values'
p29
(dp30
sS'_class_info'
p31
g10
sS'_function_info'
p32
g11
sS'_comments'
p33
S''
sbsS'_to_float'
p34
(ihappydoclib.parseinfo.functioninfo
FunctionInfo
p35
(dp36
g4
((dp37
(dp38
tp39
sg13
(dp40
sg15
(S'resp'
p41
tp42
sg18
(dp43
g41
(NNNtp44
ssg21
g22
sg23
S'Converts a string in base-60 with any separator into a float'
p45
sg25
g34
sg26
g2
sg27
g28
sg29
(dp46
sg31
g37
sg32
g38
sg33
S''
sbsS'from_lx200_angle'
p47
(ihappydoclib.parseinfo.functioninfo
FunctionInfo
p48
(dp49
g4
((dp50
(dp51
tp52
sg13
(dp53
sg15
(S'resp'
p54
tp55
sg18
(dp56
g54
(NNNtp57
ssg21
g22
sg23
S'Converts an lx200 declination response into an angle'
p58
sg25
g47
sg26
g2
sg27
g28
sg29
(dp59
sg31
g50
sg32
g51
sg33
S''
sbsS'to_lx200_angle'
p60
(ihappydoclib.parseinfo.functioninfo
FunctionInfo
p61
(dp62
g4
((dp63
(dp64
tp65
sg13
(dp66
sg15
(S'angle'
p67
tp68
sg18
(dp69
g67
(NNNtp70
ssg21
g22
sg23
S'Converts float angle to sDD*MM'
p71
sg25
g60
sg26
g2
sg27
g28
sg29
(dp72
sg31
g63
sg32
g64
sg33
S''
sbsS'to_lx200_righta'
p73
(ihappydoclib.parseinfo.functioninfo
FunctionInfo
p74
(dp75
g4
((dp76
(dp77
tp78
sg13
(dp79
sg15
(S'angle'
p80
tp81
sg18
(dp82
g80
(NNNtp83
ssg21
g22
sg23
S'Converts float angle to HH:MM.M'
p84
sg25
g73
sg26
g2
sg27
g28
sg29
(dp85
sg31
g76
sg32
g77
sg33
S''
sbstp86
sS'_import_info'
p87
(ihappydoclib.parseinfo.imports
ImportInfo
p88
(dp89
S'_named_imports'
p90
(dp91
sS'_straight_imports'
p92
(lp93
sbsg21
g22
sg23
S'"""\nclass LX200Utils:\n    ""LX200 class for methods other classes use   \n    Note: \n    two ports can be opened on the LX200\n    \n    ""\n    def __init__(self):\n\n        pass\n"""'
p94
sg25
S'LX200Utils'
p95
sg26
Nsg27
g28
sg29
(dp96
S'include_comments'
p97
I1
sS'cacheFilePrefix'
p98
S'.happydoc.'
p99
sS'useCache'
p100
I1
sS'docStringFormat'
p101
S'StructuredText'
p102
ssg31
g5
sg32
g6
sg33
S''
sbt.