(S'7b9762e8ff80f388a6e59acf4cd4e3e7'
p1
(ihappydoclib.parseinfo.moduleinfo
ModuleInfo
p2
(dp3
S'_namespaces'
p4
((dp5
S'Pec'
p6
(ihappydoclib.parseinfo.classinfo
ClassInfo
p7
(dp8
g4
((dp9
(dp10
S'pec_train'
p11
(ihappydoclib.parseinfo.functioninfo
FunctionInfo
p12
(dp13
g4
((dp14
(dp15
tp16
sS'_exception_info'
p17
(dp18
S'LX200Error( "unsupported mode: " + align_res + " for pec" )'
p19
NssS'_parameter_names'
p20
(S'self'
p21
S'clear'
p22
tp23
sS'_parameter_info'
p24
(dp25
g21
(NNNtp26
sg22
(I1
S'False'
Ntp27
ssS'_filename'
p28
S'c:\\python24\\lib\\site-packages\\lx200\\Pec.py'
p29
sS'_docstring'
p30
S' accumulate and save to disk pec errors - polar mode\n        average over sessions a-la LX200 function, or clear and start new\n        '
p31
sS'_name'
p32
g11
sS'_parent'
p33
g7
sS'_comment_info'
p34
(dp35
sS'_configuration_values'
p36
(dp37
sS'_class_info'
p38
g14
sS'_function_info'
p39
g15
sS'_comments'
p40
S''
sbsS'__init__'
p41
(ihappydoclib.parseinfo.functioninfo
FunctionInfo
p42
(dp43
g4
((dp44
(dp45
tp46
sg17
(dp47
sg20
(S'self'
p48
S'comPort'
p49
S'debug'
p50
tp51
sg24
(dp52
g50
(I1
S'False'
Ntp53
sg48
(NNNtp54
sg49
(NNNtp55
ssg28
g29
sg30
S'Constructor.\n        '
p56
sg32
g41
sg33
g7
sg34
g35
sg36
(dp57
sg38
g44
sg39
g45
sg40
S''
sbsS'pec'
p58
(ihappydoclib.parseinfo.functioninfo
FunctionInfo
p59
(dp60
g4
((dp61
(dp62
tp63
sg17
(dp64
S'LX200Error( "unsupported mode: " + align_res + " for pec" )'
p65
Nssg20
(S'self'
p66
tp67
sg24
(dp68
g66
(NNNtp69
ssg28
g29
sg30
S' apply pec\n        '
p70
sg32
g58
sg33
g7
sg34
g35
sg36
(dp71
sg38
g61
sg39
g62
sg40
S''
sbstp72
sg28
g29
sg30
S'LX200 class for periodic error correction \n    '
p73
sS'_class_member_info'
p74
(lp75
sg32
g6
sg33
g2
sg34
g35
sS'_base_class_info'
p76
(lp77
sg36
(dp78
sg38
g9
sg39
g10
sg40
S''
sbs(dp79
tp80
sS'_import_info'
p81
(ihappydoclib.parseinfo.imports
ImportInfo
p82
(dp83
S'_named_imports'
p84
(dp85
sS'_straight_imports'
p86
(lp87
sbsg28
g29
sg30
S''
sg32
S'Pec'
p88
sg33
Nsg34
g35
sg36
(dp89
S'include_comments'
p90
I1
sS'cacheFilePrefix'
p91
S'.happydoc.'
p92
sS'useCache'
p93
I1
sS'docStringFormat'
p94
S'StructuredText'
p95
ssg38
g5
sg39
g79
sg40
S''
sbt.