(S'dd51bd906d0c916d09ab1601d2e5c213'
p1
(ihappydoclib.parseinfo.moduleinfo
ModuleInfo
p2
(dp3
S'_namespaces'
p4
((dp5
S'LX200Error'
p6
(ihappydoclib.parseinfo.classinfo
ClassInfo
p7
(dp8
g4
((dp9
(dp10
tp11
sS'_filename'
p12
S'c:\\python24\\lib\\site-packages\\lx200\\LX200Error.py'
p13
sS'_docstring'
p14
S'Exception raised for telescope specific errors\n\n    Attributes:\n        expression -- input expression in which the error occurred\n        message -- explanation of the error\n    '
p15
sS'_class_member_info'
p16
(lp17
sS'_name'
p18
g6
sS'_parent'
p19
g2
sS'_comment_info'
p20
(dp21
sS'_base_class_info'
p22
(lp23
S'Error'
p24
asS'_configuration_values'
p25
(dp26
sS'_class_info'
p27
g9
sS'_function_info'
p28
g10
sS'_comments'
p29
S''
sbsS'Error'
p30
(ihappydoclib.parseinfo.classinfo
ClassInfo
p31
(dp32
g4
((dp33
(dp34
tp35
sg12
g13
sg14
S'Base class for exceptions in this module.'
p36
sg16
(lp37
sg18
g30
sg19
g2
sg20
g21
sg22
(lp38
S'Exception'
p39
asg25
(dp40
sg27
g33
sg28
g34
sg29
S''
sbs(dp41
tp42
sS'_import_info'
p43
(ihappydoclib.parseinfo.imports
ImportInfo
p44
(dp45
S'_named_imports'
p46
(dp47
sS'_straight_imports'
p48
(lp49
sbsg12
g13
sg14
S''
sg18
S'LX200Error'
p50
sg19
Nsg20
g21
sg25
(dp51
S'include_comments'
p52
I1
sS'cacheFilePrefix'
p53
S'.happydoc.'
p54
sS'useCache'
p55
I1
sS'docStringFormat'
p56
S'StructuredText'
p57
ssg27
g5
sg28
g41
sg29
S''
sbt.