(S'18c29c0edb5dead3efb2bc92c443d4a0'
p1
(ihappydoclib.parseinfo.moduleinfo
ModuleInfo
p2
(dp3
S'_namespaces'
p4
((dp5
S'Library'
p6
(ihappydoclib.parseinfo.classinfo
ClassInfo
p7
(dp8
g4
((dp9
(dp10
S'set_faint_limit'
p11
(ihappydoclib.parseinfo.functioninfo
FunctionInfo
p12
(dp13
g4
((dp14
(dp15
tp16
sS'_exception_info'
p17
(dp18
sS'_parameter_names'
p19
(S'self'
p20
S'lim'
p21
tp22
sS'_parameter_info'
p23
(dp24
g21
(NNNtp25
sg20
(NNNtp26
ssS'_filename'
p27
S'c:\\python24\\lib\\site-packages\\lx200\\Library.py'
p28
sS'_docstring'
p29
S'Set faint magnitude limit to sMM.M\n        Returns:\n        0 - Invalid\n        1 - Valid'
p30
sS'_name'
p31
g11
sS'_parent'
p32
g7
sS'_comment_info'
p33
(dp34
(S'Library'
p35
S'set_bright_limit'
tp36
S' S - Telescope Set Commands\n'
p37
s(g35
S'set_prev'
tp38
S' L - Object Library Commands\n'
p39
ssS'_configuration_values'
p40
(dp41
sS'_class_info'
p42
g14
sS'_function_info'
p43
g15
sS'_comments'
p44
S''
sbsS'identify'
p45
(ihappydoclib.parseinfo.functioninfo
FunctionInfo
p46
(dp47
g4
((dp48
(dp49
tp50
sg17
(dp51
sg19
(S'self'
p52
tp53
sg23
(dp54
g52
(NNNtp55
ssg27
g28
sg29
S' Identify object in current field.\n        Returns: <string>")\n        Where the string contains the number of objects in field & object in center field.\n        LX200GPS & Autostar - Performs no function. \n        Returns static string "0 - Objects found".'
p56
sg31
g45
sg32
g7
sg33
g34
sg40
(dp57
sg42
g48
sg43
g49
sg44
S''
sbsS'__init__'
p58
(ihappydoclib.parseinfo.functioninfo
FunctionInfo
p59
(dp60
g4
((dp61
(dp62
tp63
sg17
(dp64
sg19
(S'self'
p65
S'comPort'
p66
S'debug'
p67
tp68
sg23
(dp69
g67
(I1
S'False'
Ntp70
sg65
(NNNtp71
sg66
(NNNtp72
ssg27
g28
sg29
S'Constructor.\n\n        Arguments: a COM port object instance from LXSerial to talk through\n        '
p73
sg31
g58
sg32
g7
sg33
g34
sg40
(dp74
sg42
g61
sg43
g62
sg44
S''
sbsS'set_largest_size'
p75
(ihappydoclib.parseinfo.functioninfo
FunctionInfo
p76
(dp77
g4
((dp78
(dp79
tp80
sg17
(dp81
sg19
(S'self'
p82
S'size'
p83
tp84
sg23
(dp85
g82
(NNNtp86
sg83
(NNNtp87
ssg27
g28
sg29
S'Set the size of the largest object the FIND/BROWSE command will return to NNNN arc minutes\n        Returns:\n        0 - Invalid\n        1 - Valid'
p88
sg31
g75
sg32
g7
sg33
g34
sg40
(dp89
sg42
g78
sg43
g79
sg44
S''
sbsS'get_obj_info'
p90
(ihappydoclib.parseinfo.functioninfo
FunctionInfo
p91
(dp92
g4
((dp93
(dp94
tp95
sg17
(dp96
sg19
(S'self'
p97
tp98
sg23
(dp99
g97
(NNNtp100
ssg27
g28
sg29
S' Get Object Information\n        Returns: <string>")\n        Returns a string containing the current target object\'s name and object type.\n        LX200GPS & Autostar - performs no operation. Returns static description of Andromeda Galaxy.'
p101
sg31
g90
sg32
g7
sg33
g34
sg40
(dp102
sg42
g93
sg43
g94
sg44
S''
sbsS'set_library'
p103
(ihappydoclib.parseinfo.functioninfo
FunctionInfo
p104
(dp105
g4
((dp106
(dp107
tp108
sg17
(dp109
sg19
(S'self'
p110
S'libNum'
p111
tp112
sg23
(dp113
g111
(NNNtp114
sg110
(NNNtp115
ssg27
g28
sg29
S' Select deep sky Library where D specifices\n        0 - Objects CNGC / NGC in Autostar & LX200GPS\n        1 - Objects IC\n        2 - UGC\n        3 - Caldwell (Autostar & LX200GPS)\n        4 - Arp (LX200 GPS)\n        5 - Abell (LX200 GPS)\n        Returns:\n        1 Catalog available\n        0 Catalog Not found\n        LX200GPS & AutoStar - Performs no function always returns "1" '
p116
sg31
g103
sg32
g7
sg33
g34
sg40
(dp117
sg42
g106
sg43
g107
sg44
S''
sbsS'get_target_RA'
p118
(ihappydoclib.parseinfo.functioninfo
FunctionInfo
p119
(dp120
g4
((dp121
(dp122
tp123
sg17
(dp124
sg19
(S'self'
p125
tp126
sg23
(dp127
g125
(NNNtp128
ssg27
g28
sg29
S' Get current/target object RA\n        Returns: HH:MM.T#\n         or HH:MM:SS\n        Depending upon which precision is set for the telescope'
p129
sg31
g118
sg32
g7
sg33
g34
sg40
(dp130
sg42
g121
sg43
g122
sg44
S''
sbsS'get_largest_limit'
p131
(ihappydoclib.parseinfo.functioninfo
FunctionInfo
p132
(dp133
g4
((dp134
(dp135
tp136
sg17
(dp137
sg19
(S'self'
p138
tp139
sg23
(dp140
g138
(NNNtp141
ssg27
g28
sg29
S" Get Smaller Size Limit\n        Returns: NNN'#\n        The size of the largest object returned by the FIND command expressed in arcminutes."
p142
sg31
g131
sg32
g7
sg33
g34
sg40
(dp143
sg42
g134
sg43
g135
sg44
S''
sbsS'set_field_dia'
p144
(ihappydoclib.parseinfo.functioninfo
FunctionInfo
p145
(dp146
g4
((dp147
(dp148
tp149
sg17
(dp150
sg19
(S'self'
p151
S'mins'
p152
tp153
sg23
(dp154
g151
(NNNtp155
sg152
(NNNtp156
ssg27
g28
sg29
S'Set FIELD/IDENTIFY field diamter to NNNN arc minutes.\n        Returns:\n        0 - Invalid\n        1 - Valid'
p157
sg31
g144
sg32
g7
sg33
g34
sg40
(dp158
sg42
g147
sg43
g148
sg44
S''
sbsS'getFindField'
p159
(ihappydoclib.parseinfo.functioninfo
FunctionInfo
p160
(dp161
g4
((dp162
(dp163
tp164
sg17
(dp165
sg19
(S'self'
p166
tp167
sg23
(dp168
g166
(NNNtp169
ssg27
g28
sg29
S' Get Find Field Diameter\n        Returns: NNN#\n        An ASCIi interger expressing the diameter of the field search used \n        in the IDENTIFY/FIND commands.'
p170
sg31
g159
sg32
g7
sg33
g34
sg40
(dp171
sg42
g162
sg43
g163
sg44
S''
sbsS'get_min_quality'
p172
(ihappydoclib.parseinfo.functioninfo
FunctionInfo
p173
(dp174
g4
((dp175
(dp176
tp177
sg17
(dp178
sg19
(S'self'
p179
tp180
sg23
(dp181
g179
(NNNtp182
ssg27
g28
sg29
S' Get Minimum Quality For Find Operation\n        Returns:\n        SU# Super\n        EX# Excellent\n        VG# Very Good\n        GD# Good\n        FR# Fair\n        PR# Poor\n        VP# Very Poor\n        The mimum quality of object returned by the FIND command.'
p183
sg31
g172
sg32
g7
sg33
g34
sg40
(dp184
sg42
g175
sg43
g176
sg44
S''
sbsS'__repr__'
p185
(ihappydoclib.parseinfo.functioninfo
FunctionInfo
p186
(dp187
g4
((dp188
(dp189
tp190
sg17
(dp191
sg19
(S'self'
p192
tp193
sg23
(dp194
g192
(NNNtp195
ssg27
g28
sg29
S'Return a representation string.\n        '
p196
sg31
g185
sg32
g7
sg33
g34
sg40
(dp197
sg42
g188
sg43
g189
sg44
S''
sbsS'find_next_obj'
p198
(ihappydoclib.parseinfo.functioninfo
FunctionInfo
p199
(dp200
g4
((dp201
(dp202
tp203
sg17
(dp204
sg19
(S'self'
p205
tp206
sg23
(dp207
g205
(NNNtp208
ssg27
g28
sg29
S' Find next deep sky target object subject to the current constraints.\n        LX200GPS & AutoStar - Performs no function'
p209
sg31
g198
sg32
g7
sg33
g34
sg40
(dp210
sg42
g201
sg43
g202
sg44
S''
sbsS'get_smallest_limit'
p211
(ihappydoclib.parseinfo.functioninfo
FunctionInfo
p212
(dp213
g4
((dp214
(dp215
tp216
sg17
(dp217
sg19
(S'self'
p218
tp219
sg23
(dp220
g218
(NNNtp221
ssg27
g28
sg29
S" Get Larger Size Limit\n        Returns: NNN'#\n        The size of the smallest object to be returned by a search of the \n        telescope using the BROWSE/FIND commands."
p222
sg31
g211
sg32
g7
sg33
g34
sg40
(dp223
sg42
g214
sg43
g215
sg44
S''
sbsS'getMagBrightLimit'
p224
(ihappydoclib.parseinfo.functioninfo
FunctionInfo
p225
(dp226
g4
((dp227
(dp228
tp229
sg17
(dp230
sg19
(S'self'
p231
tp232
sg23
(dp233
g231
(NNNtp234
ssg27
g28
sg29
S' Get Browse Brighter Magnitude Limit\n        Returns: sMM.M#\n        The magnitude of the brightest object to be returned from the telescope FIND/BROWSE command.\n        Command when searching for objects in the Deep Sky database.'
p235
sg31
g224
sg32
g7
sg33
g34
sg40
(dp236
sg42
g227
sg43
g228
sg44
S''
sbsS'set_M_object'
p237
(ihappydoclib.parseinfo.functioninfo
FunctionInfo
p238
(dp239
g4
((dp240
(dp241
tp242
sg17
(dp243
sg19
(S'self'
p244
S'num'
p245
tp246
sg23
(dp247
g244
(NNNtp248
sg245
(NNNtp249
ssg27
g28
sg29
S'Set current target object to Messier Object NNNN, an ASCII expressed decimal number.\n        Returns: Nothing.\n        LX200GPS and Autostar - Implemented in later versions.'
p250
sg31
g237
sg32
g7
sg33
g34
sg40
(dp251
sg42
g240
sg43
g241
sg44
S''
sbsS'set_star_catalog'
p252
(ihappydoclib.parseinfo.functioninfo
FunctionInfo
p253
(dp254
g4
((dp255
(dp256
tp257
sg17
(dp258
sg19
(S'self'
p259
S'num'
p260
tp261
sg23
(dp262
g259
(NNNtp263
sg260
(NNNtp264
ssg27
g28
sg29
S' Select star catalog D, an ASCII integer where D specifies:\n        0 STAR library (Not supported on Autostar I & II)\n        1 SAO library\n        2 GCVS library        \n        3 Hipparcos (Autostar I & 2)\n        4 HR (Autostar I & 2)\n        5 HD (Autostar I & 2)\n        Returns:\n        1 Catalog Available\n        2 Catalog Not Found'
p265
sg31
g252
sg32
g7
sg33
g34
sg40
(dp266
sg42
g255
sg43
g256
sg44
S''
sbsS'set_star_object'
p267
(ihappydoclib.parseinfo.functioninfo
FunctionInfo
p268
(dp269
g4
((dp270
(dp271
tp272
sg17
(dp273
sg19
(S'self'
p274
S'num'
p275
tp276
sg23
(dp277
g274
(NNNtp278
sg275
(NNNtp279
ssg27
g28
sg29
S'Select star NNNN as the current target object from the currently selected catalog\n        Returns: Nothing\n        LX200GPS & AutoStar - Available in later firmwares'
p280
sg31
g267
sg32
g7
sg33
g34
sg40
(dp281
sg42
g270
sg43
g271
sg44
S''
sbsS'set_prev'
p282
(ihappydoclib.parseinfo.functioninfo
FunctionInfo
p283
(dp284
g4
((dp285
(dp286
tp287
sg17
(dp288
sg19
(S'self'
p289
tp290
sg23
(dp291
g289
(NNNtp292
ssg27
g28
sg29
S' Find previous object and set it as the current target object.\n        Returns: Nothing\n        LX200GPS & Autostar - Performs no function'
p293
sg31
g282
sg32
g7
sg33
g34
sg40
(dp294
sg42
g285
sg43
g286
sg44
g39
sbsS'set_smallest_size'
p295
(ihappydoclib.parseinfo.functioninfo
FunctionInfo
p296
(dp297
g4
((dp298
(dp299
tp300
sg17
(dp301
sg19
(S'self'
p302
S'size'
p303
tp304
sg23
(dp305
g302
(NNNtp306
sg303
(NNNtp307
ssg27
g28
sg29
S'Set the size of the smallest object returned by FIND/BROWSE to NNNN arc minutes\n        Returns:\n        0 - Invalid\n        1 - Valid'
p308
sg31
g295
sg32
g7
sg33
g34
sg40
(dp309
sg42
g298
sg43
g299
sg44
S''
sbsS'getMagFaintLimit'
p310
(ihappydoclib.parseinfo.functioninfo
FunctionInfo
p311
(dp312
g4
((dp313
(dp314
tp315
sg17
(dp316
sg19
(S'self'
p317
tp318
sg23
(dp319
g317
(NNNtp320
ssg27
g28
sg29
S' Get Browse Faint Magnitude Limit\n        Returns: sMM.M")\n        The magnitude or the faintest object to be returned from the telescope \n        FIND/BROWSE command.'
p321
sg31
g310
sg32
g7
sg33
g34
sg40
(dp322
sg42
g313
sg43
g314
sg44
S''
sbsS'set_min_obj'
p323
(ihappydoclib.parseinfo.functioninfo
FunctionInfo
p324
(dp325
g4
((dp326
(dp327
tp328
sg17
(dp329
sg19
(S'self'
p330
S'elev'
p331
tp332
sg23
(dp333
g330
(NNNtp334
sg331
(NNNtp335
ssg27
g28
sg29
S'Set the minimum object elevation limit to DD")\n            Returns:\n        0 - Invalid\n        1 - Valid'
p336
sg31
g323
sg32
g7
sg33
g34
sg40
(dp337
sg42
g326
sg43
g327
sg44
S''
sbsS'set_obj_select'
p338
(ihappydoclib.parseinfo.functioninfo
FunctionInfo
p339
(dp340
g4
((dp341
(dp342
tp343
sg17
(dp344
sg19
(S'self'
p345
tp346
sg23
(dp347
g345
(NNNtp348
ssg27
g28
sg29
S'Sets the object selection string used by the FIND/BROWSE command.\n        Returns:\n        0 - Invalid\n        1 - Valid'
p349
sg31
g338
sg32
g7
sg33
g34
sg40
(dp350
sg42
g341
sg43
g342
sg44
S''
sbsS'set_bright_limit'
p351
(ihappydoclib.parseinfo.functioninfo
FunctionInfo
p352
(dp353
g4
((dp354
(dp355
tp356
sg17
(dp357
sg19
(S'self'
p358
S'lim'
p359
tp360
sg23
(dp361
g359
(NNNtp362
sg358
(NNNtp363
ssg27
g28
sg29
S'    Set Brighter limit to the ASCII decimal magnitude string. SMM.M\n        Returns:\n        0 - Valid\n        1 - invalid number'
p364
sg31
g351
sg32
g7
sg33
g34
sg40
(dp365
sg42
g354
sg43
g355
sg44
g37
sbsS'step_quality'
p366
(ihappydoclib.parseinfo.functioninfo
FunctionInfo
p367
(dp368
g4
((dp369
(dp370
tp371
sg17
(dp372
sg19
(S'self'
p373
tp374
sg23
(dp375
g373
(NNNtp376
ssg27
g28
sg29
S'Step the quality of limit used in FIND/BROWSE through its cycle of \n        VP ... SU. Current setting can be queried with :Gq#\n        Returns: Nothing'
p377
sg31
g366
sg32
g7
sg33
g34
sg40
(dp378
sg42
g369
sg43
g370
sg44
S''
sbsS'set_target_object'
p379
(ihappydoclib.parseinfo.functioninfo
FunctionInfo
p380
(dp381
g4
((dp382
(dp383
tp384
sg17
(dp385
sg19
(S'self'
p386
S'num'
p387
tp388
sg23
(dp389
g386
(NNNtp390
sg387
(NNNtp391
ssg27
g28
sg29
S'Set current target object to deep sky catalog object number NNNN\n        Returns : Nothing\n        LX200GPS & Autostar - Implemented in later firmware revisions'
p392
sg31
g379
sg32
g7
sg33
g34
sg40
(dp393
sg42
g382
sg43
g383
sg44
S''
sbsS'sync_object'
p394
(ihappydoclib.parseinfo.functioninfo
FunctionInfo
p395
(dp396
g4
((dp397
(dp398
tp399
sg17
(dp400
sg19
(S'self'
p401
S'object'
p402
tp403
sg23
(dp404
g401
(NNNtp405
sg402
(I1
S'None'
Ntp406
ssg27
g28
sg29
S' Synchronizes the telescope\'s position with the currently selected database object\'s coordinates.\n        Returns:\n        LX200\'s - a "#" terminated string with the name of the object that was sync\'d.\n        Autostars & LX200GPS - A static string: " M31 EX GAL MAG 3.5 SZ178.0\'#" '
p407
sg31
g394
sg32
g7
sg33
g34
sg40
(dp408
sg42
g397
sg43
g398
sg44
S''
sbsS'find_obj'
p409
(ihappydoclib.parseinfo.functioninfo
FunctionInfo
p410
(dp411
g4
((dp412
(dp413
tp414
sg17
(dp415
sg19
(S'self'
p416
tp417
sg23
(dp418
g416
(NNNtp419
ssg27
g28
sg29
S' Find Object using the current Size, Type, Upper limit, lower limt \n        and Quality contraints and set it as current target object.\n        Returns: Nothing\n        LX200GPS & Autostar - Performs no function '
p420
sg31
g409
sg32
g7
sg33
g34
sg40
(dp421
sg42
g412
sg43
g413
sg44
S''
sbsS'get_search_string'
p422
(ihappydoclib.parseinfo.functioninfo
FunctionInfo
p423
(dp424
g4
((dp425
(dp426
tp427
sg17
(dp428
sg19
(S'self'
p429
tp430
sg23
(dp431
g429
(NNNtp432
ssg27
g28
sg29
S' Get deepsky object search string\n        Returns: GPDCO#\n            A string indicaing the class of objects that should be returned by the FIND/BROWSE command. If the character\n        is upper case, the object class is return. If the character is lowercase, objects of this class are ignored. The\n        character meanings are as follws:\n        G - Galaxies\n        P - Planetary Nebulas\n        D - Diffuse Nebulas\n        C - Globular Clusters\n        O - Open Clusters'
p433
sg31
g422
sg32
g7
sg33
g34
sg40
(dp434
sg42
g425
sg43
g426
sg44
S''
sbsS'get_object_Dec'
p435
(ihappydoclib.parseinfo.functioninfo
FunctionInfo
p436
(dp437
g4
((dp438
(dp439
tp440
sg17
(dp441
sg19
(S'self'
p442
tp443
sg23
(dp444
g442
(NNNtp445
ssg27
g28
sg29
S" Get Currently Selected Object/Target Declination\n        Returns: sDD*MM#\n         or sDD*MM'SS#\n        Depending upon the current precision setting for the telescope."
p446
sg31
g435
sg32
g7
sg33
g34
sg40
(dp447
sg42
g438
sg43
g439
sg44
S''
sbstp448
sg27
g28
sg29
S'Class for the LX200 built-in object library     '
p449
sS'_class_member_info'
p450
(lp451
sg31
g6
sg32
g2
sg33
g34
sS'_base_class_info'
p452
(lp453
sg40
(dp454
sg42
g9
sg43
g10
sg44
S''
sbs(dp455
tp456
sS'_import_info'
p457
(ihappydoclib.parseinfo.imports
ImportInfo
p458
(dp459
S'_named_imports'
p460
(dp461
sS'_straight_imports'
p462
(lp463
sbsg27
g28
sg29
S''
sg31
S'Library'
p464
sg32
Nsg33
g34
sg40
(dp465
S'include_comments'
p466
I1
sS'cacheFilePrefix'
p467
S'.happydoc.'
p468
sS'useCache'
p469
I1
sS'docStringFormat'
p470
S'StructuredText'
p471
ssg42
g5
sg43
g455
sg44
S''
sbt.