(S'ddac1eadb4174fc4a7e087e37bf43dc0'
p1
(ihappydoclib.parseinfo.moduleinfo
ModuleInfo
p2
(dp3
S'_namespaces'
p4
((dp5
(dp6
S'main'
p7
(ihappydoclib.parseinfo.functioninfo
FunctionInfo
p8
(dp9
g4
((dp10
(dp11
tp12
sS'_exception_info'
p13
(dp14
sS'_parameter_names'
p15
(tsS'_parameter_info'
p16
(dp17
sS'_filename'
p18
S'c:\\python24\\lib\\site-packages\\lx200\\examples\\LXtest.py'
p19
sS'_docstring'
p20
S''
sS'_name'
p21
g7
sS'_parent'
p22
g2
sS'_comment_info'
p23
(dp24
sS'_configuration_values'
p25
(dp26
sS'_class_info'
p27
g10
sS'_function_info'
p28
g11
sS'_comments'
p29
S''
sbstp30
sS'_import_info'
p31
(ihappydoclib.parseinfo.imports
ImportInfo
p32
(dp33
S'_named_imports'
p34
(dp35
sS'_straight_imports'
p36
(lp37
sbsg18
g19
sg20
S''
sg21
S'LXtest'
p38
sg22
Nsg23
g24
sg25
(dp39
S'include_comments'
p40
I1
sS'cacheFilePrefix'
p41
S'.happydoc.'
p42
sS'useCache'
p43
I1
sS'docStringFormat'
p44
S'StructuredText'
p45
ssg27
g5
sg28
g6
sg29
S''
sbt.