(S'7fa5cc8ff234d1526ca7888f03990362'
p1
(ihappydoclib.parseinfo.moduleinfo
ModuleInfo
p2
(dp3
S'_namespaces'
p4
((dp5
S'LXGPS'
p6
(ihappydoclib.parseinfo.classinfo
ClassInfo
p7
(dp8
g4
((dp9
(dp10
S'GPS_on'
p11
(ihappydoclib.parseinfo.functioninfo
FunctionInfo
p12
(dp13
g4
((dp14
(dp15
tp16
sS'_exception_info'
p17
(dp18
sS'_parameter_names'
p19
(S'self'
p20
tp21
sS'_parameter_info'
p22
(dp23
g20
(NNNtp24
ssS'_filename'
p25
S'c:\\python24\\lib\\site-packages\\lx200\\LXGPS.py'
p26
sS'_docstring'
p27
S' Turn on GPS power'
p28
sS'_name'
p29
S'GPS_on'
p30
sS'_parent'
p31
g7
sS'_comment_info'
p32
(dp33
(S'LXGPS'
p34
S'set_guide_rate'
tp35
S' R - Slew Rate Commands\n'
p36
s(g34
S'auto_align'
tp37
S' Appendix A: LX200GPS Command Extensions\n'
p38
s(g34
S'toggle_smart_PEC'
tp39
S' Q- Smart Drive Control\n'
p40
s(g34
S'restart'
tp41
S'I - Initialize Telescope Command\n'
p42
s(g34
S'sleep'
tp43
S' h - Home Position Commands\n'
p44
s(g34
S'GPS'
tp45
S' g - GPS/Magnetometer commands\n'
p46
ssS'_configuration_values'
p47
(dp48
sS'_class_info'
p49
g14
sS'_function_info'
p50
g15
sS'_comments'
p51
S''
sbsS'get_GPS_time'
p52
(ihappydoclib.parseinfo.functioninfo
FunctionInfo
p53
(dp54
g4
((dp55
(dp56
tp57
sg17
(dp58
sg19
(S'self'
p59
tp60
sg22
(dp61
g59
(NNNtp62
ssg25
g26
sg27
S" Powers up the GPS and updates the system time from the GPS stream. \n        The process my take several minutes to complete.\n        During GPS update, normal handbox operations are interrupted. [LX200gps only]\n        Returns: '0' In the event that the user interrupts the process, or the GPS times out.\n        Returns: '1' After successful updates"
p63
sg29
g52
sg31
g7
sg32
g33
sg47
(dp64
sg49
g55
sg50
g56
sg51
S''
sbsS'get_firmware_num'
p65
(ihappydoclib.parseinfo.functioninfo
FunctionInfo
p66
(dp67
g4
((dp68
(dp69
tp70
sg17
(dp71
S'LX200Error( "unsupported model: " + self.model + " for version" )'
p72
Nssg19
(S'self'
p73
tp74
sg22
(dp75
g73
(NNNtp76
ssg25
g26
sg27
S' Get Telescope Firmware Number\n        Returns: dd.d#'
p77
sg29
g65
sg31
g7
sg32
g33
sg47
(dp78
sg49
g68
sg50
g69
sg51
S''
sbsS'set_guide_rate'
p79
(ihappydoclib.parseinfo.functioninfo
FunctionInfo
p80
(dp81
g4
((dp82
(dp83
tp84
sg17
(dp85
sg19
(S'self'
p86
S'r'
tp87
sg22
(dp88
g86
(NNNtp89
sS'r'
(NNNtp90
ssg25
g26
sg27
S' Programmable Guiding Rates'
p91
sg29
S'set_guide_rate'
p92
sg31
g7
sg32
g33
sg47
(dp93
sg49
g82
sg50
g83
sg51
g36
sbsS'enable_DEC_PEC'
p94
(ihappydoclib.parseinfo.functioninfo
FunctionInfo
p95
(dp96
g4
((dp97
(dp98
tp99
sg17
(dp100
sg19
(S'self'
p101
tp102
sg22
(dp103
g101
(NNNtp104
ssg25
g26
sg27
S' Dec PEC Enable'
p105
sg29
S'enable_DEC_PEC'
p106
sg31
g7
sg32
g33
sg47
(dp107
sg49
g97
sg50
g98
sg51
S''
sbsS'sleep'
p108
(ihappydoclib.parseinfo.functioninfo
FunctionInfo
p109
(dp110
g4
((dp111
(dp112
tp113
sg17
(dp114
sg19
(S'self'
p115
S't'
tp116
sg22
(dp117
g115
(NNNtp118
sS't'
(I1
S'None'
Ntp119
ssg25
g26
sg27
S' LX200GPS only: Sleep Telescope. Power off motors, encoders, displays and lights. Scope\n        remains in minimum power mode until a keystroke is received or a wake command is sent.\n        Takes optional param time in seconds'
p120
sg29
g108
sg31
g7
sg32
g33
sg47
(dp121
sg49
g111
sg50
g112
sg51
g44
sbsS'get_firmware_time'
p122
(ihappydoclib.parseinfo.functioninfo
FunctionInfo
p123
(dp124
g4
((dp125
(dp126
tp127
sg17
(dp128
S'LX200Error( "unsupported model: " + self.model + " for version" )'
p129
Nssg19
(S'self'
p130
tp131
sg22
(dp132
g130
(NNNtp133
ssg25
g26
sg27
S' Get Telescope Firmware Time\n        returns: HH:MM:SS#'
p134
sg29
g122
sg31
g7
sg32
g33
sg47
(dp135
sg49
g125
sg50
g126
sg51
S''
sbsS'__init__'
p136
(ihappydoclib.parseinfo.functioninfo
FunctionInfo
p137
(dp138
g4
((dp139
(dp140
tp141
sg17
(dp142
sg19
(S'self'
p143
S'comPort'
p144
S'debug'
p145
tp146
sg22
(dp147
g145
(I1
S'False'
Ntp148
sg143
(NNNtp149
sg144
(NNNtp150
ssg25
g26
sg27
S'Constructor.\n        '
p151
sg29
g136
sg31
g7
sg32
g33
sg47
(dp152
sg49
g139
sg50
g140
sg51
S''
sbsS'set_dec_backlash'
p153
(ihappydoclib.parseinfo.functioninfo
FunctionInfo
p154
(dp155
g4
((dp156
(dp157
tp158
sg17
(dp159
S'LX200Error( "unsupported model: " + self.model + " for active backlash  " )'
p160
Nssg19
(S'self'
p161
S'seconds'
p162
tp163
sg22
(dp164
g162
(NNNtp165
sg161
(NNNtp166
ssg25
g26
sg27
S'Set Altitude/Dec Antibacklash\n        Returns Nothing'
p167
sg29
g153
sg31
g7
sg32
g33
sg47
(dp168
sg49
g156
sg50
g157
sg51
S''
sbsS'get_product_name'
p169
(ihappydoclib.parseinfo.functioninfo
FunctionInfo
p170
(dp171
g4
((dp172
(dp173
tp174
sg17
(dp175
S'LX200Error( "unsupported model: " + self.model + " for version" )'
p176
Nssg19
(S'self'
p177
tp178
sg22
(dp179
g177
(NNNtp180
ssg25
g26
sg27
S' Get Telescope Product Name\n        Returns: <string>#'
p181
sg29
g169
sg31
g7
sg32
g33
sg47
(dp182
sg49
g172
sg50
g173
sg51
S''
sbsS'disable_DEC_PEC'
p183
(ihappydoclib.parseinfo.functioninfo
FunctionInfo
p184
(dp185
g4
((dp186
(dp187
tp188
sg17
(dp189
sg19
(S'self'
p190
tp191
sg22
(dp192
g190
(NNNtp193
ssg25
g26
sg27
S'  disable Dec/Alt PEC [LX200gps only]\n        Returns: Nothing'
p194
sg29
g183
sg31
g7
sg32
g33
sg47
(dp195
sg49
g186
sg50
g187
sg51
S''
sbsS'toggle_smart_PEC'
p196
(ihappydoclib.parseinfo.functioninfo
FunctionInfo
p197
(dp198
g4
((dp199
(dp200
tp201
sg17
(dp202
sg19
(S'self'
p203
tp204
sg22
(dp205
g203
(NNNtp206
ssg25
g26
sg27
S'Toggles Smart Drive PEC on and off for both axis\n        Returns: Nothing\n        Not supported on Autostar'
p207
sg29
g196
sg31
g7
sg32
g33
sg47
(dp208
sg49
g199
sg50
g200
sg51
g40
sbsS'reticule_duty'
p209
(ihappydoclib.parseinfo.functioninfo
FunctionInfo
p210
(dp211
g4
((dp212
(dp213
tp214
sg17
(dp215
sg19
(S'self'
p216
S'n'
tp217
sg22
(dp218
g216
(NNNtp219
sS'n'
(NNNtp220
ssg25
g26
sg27
S' Programmable Reticule Duty Cycle'
p221
sg29
g209
sg31
g7
sg32
g33
sg47
(dp222
sg49
g212
sg50
g213
sg51
S''
sbsS'init_scope'
p223
(ihappydoclib.parseinfo.functioninfo
FunctionInfo
p224
(dp225
g4
((dp226
(dp227
tp228
sg17
(dp229
sg19
(S'self'
p230
tp231
sg22
(dp232
g230
(NNNtp233
ssg25
g26
sg27
S' Initialize Telescope'
p234
sg29
g223
sg31
g7
sg32
g33
sg47
(dp235
sg49
g226
sg50
g227
sg51
S''
sbsS'get_firmware_date'
p236
(ihappydoclib.parseinfo.functioninfo
FunctionInfo
p237
(dp238
g4
((dp239
(dp240
tp241
sg17
(dp242
S'LX200Error( "unsupported model: " + self.model + " for version" )'
p243
Nssg19
(S'self'
p244
tp245
sg22
(dp246
g244
(NNNtp247
ssg25
g26
sg27
S' Get Telescope Firmware Date\n        Returns: mmm dd yyyy# '
p248
sg29
g236
sg31
g7
sg32
g33
sg47
(dp249
sg49
g239
sg50
g240
sg51
S''
sbsS'get_GPS_data'
p250
(ihappydoclib.parseinfo.functioninfo
FunctionInfo
p251
(dp252
g4
((dp253
(dp254
tp255
sg17
(dp256
sg19
(S'self'
p257
tp258
sg22
(dp259
g257
(NNNtp260
ssg25
g26
sg27
S" LX200GPS Only - Turns on NMEA GPS data stream.\n        Returns: The next string from the GPS in standard NEMA format followed by a '#' key"
p261
sg29
g250
sg31
g7
sg32
g33
sg47
(dp262
sg49
g253
sg50
g254
sg51
S''
sbsS'set_DEC_backlash'
p263
(ihappydoclib.parseinfo.functioninfo
FunctionInfo
p264
(dp265
g4
((dp266
(dp267
tp268
sg17
(dp269
sg19
(S'self'
p270
S'dd'
p271
tp272
sg22
(dp273
g270
(NNNtp274
sg271
(NNNtp275
ssg25
g26
sg27
S' Set Altitude/Dec Antibacklash'
p276
sg29
g263
sg31
g7
sg32
g33
sg47
(dp277
sg49
g266
sg50
g267
sg51
S''
sbsS'update_time'
p278
(ihappydoclib.parseinfo.functioninfo
FunctionInfo
p279
(dp280
g4
((dp281
(dp282
tp283
sg17
(dp284
sg19
(S'self'
p285
tp286
sg22
(dp287
g285
(NNNtp288
ssg25
g26
sg27
S' Updates Time of Day from GPS'
p289
sg29
g278
sg31
g7
sg32
g33
sg47
(dp290
sg49
g281
sg50
g282
sg51
S''
sbsS'GPS_off'
p291
(ihappydoclib.parseinfo.functioninfo
FunctionInfo
p292
(dp293
g4
((dp294
(dp295
tp296
sg17
(dp297
sg19
(S'self'
p298
tp299
sg22
(dp300
g298
(NNNtp301
ssg25
g26
sg27
S' Turn off GPS power'
p302
sg29
S'GPS_off'
p303
sg31
g7
sg32
g33
sg47
(dp304
sg49
g294
sg50
g295
sg51
S''
sbsS'version_info'
p305
(ihappydoclib.parseinfo.functioninfo
FunctionInfo
p306
(dp307
g4
((dp308
(dp309
tp310
sg17
(dp311
S'LX200Error( "unsupported model: " + self.model + " for version" )'
p312
Nssg19
(S'self'
p313
tp314
sg22
(dp315
g313
(NNNtp316
ssg25
g26
sg27
S''
sg29
g305
sg31
g7
sg32
g33
sg47
(dp317
sg49
g308
sg50
g309
sg51
S''
sbsS'TO_DO'
p318
(ihappydoclib.parseinfo.functioninfo
FunctionInfo
p319
(dp320
g4
((dp321
(dp322
tp323
sg17
(dp324
sg19
(S'self'
p325
tp326
sg22
(dp327
g325
(NNNtp328
ssg25
g26
sg27
S' Stream GPS data'
p329
sg29
g318
sg31
g7
sg32
g33
sg47
(dp330
sg49
g321
sg50
g322
sg51
S''
sbsS'deisable_DEC_PEC'
p331
(ihappydoclib.parseinfo.functioninfo
FunctionInfo
p332
(dp333
g4
((dp334
(dp335
tp336
sg17
(dp337
sg19
(S'self'
p338
tp339
sg22
(dp340
g338
(NNNtp341
ssg25
g26
sg27
S' Dec PEC Disable'
p342
sg29
g331
sg31
g7
sg32
g33
sg47
(dp343
sg49
g334
sg50
g335
sg51
S''
sbsS'enable_RA_PEC'
p344
(ihappydoclib.parseinfo.functioninfo
FunctionInfo
p345
(dp346
g4
((dp347
(dp348
tp349
sg17
(dp350
sg19
(S'self'
p351
tp352
sg22
(dp353
g351
(NNNtp354
ssg25
g26
sg27
S' RA PEC Enable'
p355
sg29
S'enable_RA_PEC'
p356
sg31
g7
sg32
g33
sg47
(dp357
sg49
g347
sg50
g348
sg51
S''
sbsS'wake'
p358
(ihappydoclib.parseinfo.functioninfo
FunctionInfo
p359
(dp360
g4
((dp361
(dp362
tp363
sg17
(dp364
sg19
(S'self'
p365
tp366
sg22
(dp367
g365
(NNNtp368
ssg25
g26
sg27
S' LX200 GPS Only: Wake up sleeping telescope.'
p369
sg29
g358
sg31
g7
sg32
g33
sg47
(dp370
sg49
g361
sg50
g362
sg51
S''
sbsS'disable_RA_PEC'
p371
(ihappydoclib.parseinfo.functioninfo
FunctionInfo
p372
(dp373
g4
((dp374
(dp375
tp376
sg17
(dp377
sg19
(S'self'
p378
tp379
sg22
(dp380
g378
(NNNtp381
ssg25
g26
sg27
S' RA PEC Disable'
p382
sg29
S'disable_RA_PEC'
p383
sg31
g7
sg32
g33
sg47
(dp384
sg49
g374
sg50
g375
sg51
S''
sbsS'restart'
p385
(ihappydoclib.parseinfo.functioninfo
FunctionInfo
p386
(dp387
g4
((dp388
(dp389
tp390
sg17
(dp391
sg19
(S'self'
p392
tp393
sg22
(dp394
g392
(NNNtp395
ssg25
g26
sg27
S' LX200 GPS Only - Causes the telescope to cease current operations \n        and restart at its power on initialization.'
p396
sg29
g385
sg31
g7
sg32
g33
sg47
(dp397
sg49
g388
sg50
g389
sg51
g42
sbsS'GPS'
p398
(ihappydoclib.parseinfo.functioninfo
FunctionInfo
p399
(dp400
g4
((dp401
(dp402
tp403
sg17
(dp404
sg19
(S'self'
p405
S'state'
p406
S'data'
p407
tp408
sg22
(dp409
g405
(NNNtp410
sg407
(I1
S'None'
Ntp411
sg406
(I1
S'"on"'
Ntp412
ssg25
g26
sg27
S''
sg29
g398
sg31
g7
sg32
g33
sg47
(dp413
sg49
g401
sg50
g402
sg51
g46
sbsS'set_ra_backlash'
p414
(ihappydoclib.parseinfo.functioninfo
FunctionInfo
p415
(dp416
g4
((dp417
(dp418
tp419
sg17
(dp420
S'LX200Error( "unsupported model: " + self.model + " for active backlash  " )'
p421
Nssg19
(S'self'
p422
S'seconds'
p423
tp424
sg22
(dp425
g423
(NNNtp426
sg422
(NNNtp427
ssg25
g26
sg27
S'Set Azimuth/RA Antibacklash\n        Returns Nothing'
p428
sg29
g414
sg31
g7
sg32
g33
sg47
(dp429
sg49
g417
sg50
g418
sg51
S''
sbsS'set_DEC_slew_rate'
p430
(ihappydoclib.parseinfo.functioninfo
FunctionInfo
p431
(dp432
g4
((dp433
(dp434
tp435
sg17
(dp436
sg19
(S'self'
p437
S'r'
tp438
sg22
(dp439
g437
(NNNtp440
sS'r'
(NNNtp441
ssg25
g26
sg27
S' Programmable Slew Rates'
p442
sg29
S'set_DEC_slew_rate'
p443
sg31
g7
sg32
g33
sg47
(dp444
sg49
g433
sg50
g434
sg51
S''
sbsS'auto_align'
p445
(ihappydoclib.parseinfo.functioninfo
FunctionInfo
p446
(dp447
g4
((dp448
(dp449
tp450
sg17
(dp451
sg19
(S'self'
p452
tp453
sg22
(dp454
g452
(NNNtp455
ssg25
g26
sg27
S' Automatically align scope'
p456
sg29
g445
sg31
g7
sg32
g33
sg47
(dp457
sg49
g448
sg50
g449
sg51
g38
sbsS'version_info_list'
p458
(ihappydoclib.parseinfo.functioninfo
FunctionInfo
p459
(dp460
g4
((dp461
(dp462
tp463
sg17
(dp464
sg19
(S'self'
p465
tp466
sg22
(dp467
g465
(NNNtp468
ssg25
g26
sg27
S''
sg29
g458
sg31
g7
sg32
g33
sg47
(dp469
sg49
g461
sg50
g462
sg51
S''
sbsS'__repr__'
p470
(ihappydoclib.parseinfo.functioninfo
FunctionInfo
p471
(dp472
g4
((dp473
(dp474
tp475
sg17
(dp476
sg19
(S'self'
p477
tp478
sg22
(dp479
g477
(NNNtp480
ssg25
g26
sg27
S'Return a representation string.\n        '
p481
sg29
g470
sg31
g7
sg32
g33
sg47
(dp482
sg49
g473
sg50
g474
sg51
S''
sbsS'set_RA_backlash'
p483
(ihappydoclib.parseinfo.functioninfo
FunctionInfo
p484
(dp485
g4
((dp486
(dp487
tp488
sg17
(dp489
sg19
(S'self'
p490
S'dd'
p491
tp492
sg22
(dp493
g490
(NNNtp494
sg491
(NNNtp495
ssg25
g26
sg27
S' Set Azimuth/RA Antibacklash'
p496
sg29
g483
sg31
g7
sg32
g33
sg47
(dp497
sg49
g486
sg50
g487
sg51
S''
sbsS'set_baud_rate'
p498
(ihappydoclib.parseinfo.functioninfo
FunctionInfo
p499
(dp500
g4
((dp501
(dp502
tp503
sg17
(dp504
sg19
(S'self'
p505
S'r'
tp506
sg22
(dp507
g505
(NNNtp508
sS'r'
(NNNtp509
ssg25
g26
sg27
S' Set Baud Rate'
p510
sg29
g498
sg31
g7
sg32
g33
sg47
(dp511
sg49
g501
sg50
g502
sg51
S''
sbsS'set_RA_slew_rate'
p512
(ihappydoclib.parseinfo.functioninfo
FunctionInfo
p513
(dp514
g4
((dp515
(dp516
tp517
sg17
(dp518
sg19
(S'self'
p519
S'r'
tp520
sg22
(dp521
g519
(NNNtp522
sS'r'
(NNNtp523
ssg25
g26
sg27
S' Programmable Slew Rates'
p524
sg29
S'set_RA_slew_rate'
p525
sg31
g7
sg32
g33
sg47
(dp526
sg49
g515
sg50
g516
sg51
S''
sbstp527
sg25
g26
sg27
S'LX200 class for GPS and properties \n    TO DO: implement the NAK wait\n    \n    '
p528
sS'_class_member_info'
p529
(lp530
sg29
g6
sg31
g2
sg32
g33
sS'_base_class_info'
p531
(lp532
sg47
(dp533
sg49
g9
sg50
g10
sg51
S''
sbs(dp534
tp535
sS'_import_info'
p536
(ihappydoclib.parseinfo.imports
ImportInfo
p537
(dp538
S'_named_imports'
p539
(dp540
sS'_straight_imports'
p541
(lp542
sbsg25
g26
sg27
S''
sg29
S'LXGPS'
p543
sg31
Nsg32
g33
sg47
(dp544
S'include_comments'
p545
I1
sS'cacheFilePrefix'
p546
S'.happydoc.'
p547
sS'useCache'
p548
I1
sS'docStringFormat'
p549
S'StructuredText'
p550
ssg49
g5
sg50
g534
sg51
S''
sbt.