(S'b9cce38a97fdfb5442a824d61c7e2062'
p1
(ihappydoclib.parseinfo.moduleinfo
ModuleInfo
p2
(dp3
S'_namespaces'
p4
((dp5
S'Focuser'
p6
(ihappydoclib.parseinfo.classinfo
ClassInfo
p7
(dp8
g4
((dp9
(dp10
S'focus_slow'
p11
(ihappydoclib.parseinfo.functioninfo
FunctionInfo
p12
(dp13
g4
((dp14
(dp15
tp16
sS'_exception_info'
p17
(dp18
sS'_parameter_names'
p19
(S'self'
p20
tp21
sS'_parameter_info'
p22
(dp23
g20
(NNNtp24
ssS'_filename'
p25
S'c:\\python24\\lib\\site-packages\\lx200\\Focuser.py'
p26
sS'_docstring'
p27
S' Set Focus speed to slowest setting\n        Returns: Nothing'
p28
sS'_name'
p29
g11
sS'_parent'
p30
g7
sS'_comment_info'
p31
(dp32
(S'Focuser'
S'Move'
tp33
S' F - Focuser Control\n'
p34
ssS'_configuration_values'
p35
(dp36
sS'_class_info'
p37
g14
sS'_function_info'
p38
g15
sS'_comments'
p39
S''
sbsS'focus_speed'
p40
(ihappydoclib.parseinfo.functioninfo
FunctionInfo
p41
(dp42
g4
((dp43
(dp44
tp45
sg17
(dp46
S'LX200Error( "unsupported model: " + self.model + " for Optical Tube Assembly Temperature" )'
p47
Nssg19
(S'self'
p48
S'speed'
p49
tp50
sg22
(dp51
g48
(NNNtp52
sg49
(NNNtp53
ssg25
g26
sg27
S' Autostar & LX200GPS - set focuser speed to <n> where <n> is an ASCII digit 1..4\n        Returns: Nothing\n        LX200 - Not Supported'
p54
sg29
g40
sg30
g7
sg31
g32
sg35
(dp55
sg37
g43
sg38
g44
sg39
S''
sbsS'Halt'
p56
(ihappydoclib.parseinfo.functioninfo
FunctionInfo
p57
(dp58
g4
((dp59
(dp60
tp61
sg17
(dp62
sg19
(S'self'
p63
tp64
sg22
(dp65
g63
(NNNtp66
ssg25
g26
sg27
S' Halt Focuser Motion\n        Returns: Nothing'
p67
sg29
g56
sg30
g7
sg31
g32
sg35
(dp68
sg37
g59
sg38
g60
sg39
S''
sbsS'Move'
p69
(ihappydoclib.parseinfo.functioninfo
FunctionInfo
p70
(dp71
g4
((dp72
(dp73
tp74
sg17
(dp75
sg19
(S'Position'
p76
tp77
sg22
(dp78
g76
(NNNtp79
ssg25
g26
sg27
S'Position (Long) Step distance\n        Return (Nothing) Does not return a value.\n        Remarks\n        If the Absolute property is True, then this is an absolute positioning \n        focuser. The Move command tells the focuser to move to an exact step \n        position, and the Position property is an integer between 0 and MaxStep. \n        If the Absolute property is False, then this is a relative positioning \n        focuser. The Move command tells the focuser to move in a relative direction,\n        and the Position property is an integer between minus MaxIncrement and plus \n        MaxIncrement. '
p80
sg29
g69
sg30
g7
sg31
g32
sg35
(dp81
sg37
g72
sg38
g73
sg39
g34
sbsS'focus_out'
p82
(ihappydoclib.parseinfo.functioninfo
FunctionInfo
p83
(dp84
g4
((dp85
(dp86
tp87
sg17
(dp88
S'LX200Error( "unsupported speed: " + speed + " for focusser" )'
p89
Nssg19
(S'self'
p90
tp91
sg22
(dp92
g90
(NNNtp93
ssg25
g26
sg27
S' Start Focuser moving outward (away from objective)\n        Returns: None'
p94
sg29
g82
sg30
g7
sg31
g32
sg35
(dp95
sg37
g85
sg38
g86
sg39
S''
sbsS'focus_fast'
p96
(ihappydoclib.parseinfo.functioninfo
FunctionInfo
p97
(dp98
g4
((dp99
(dp100
tp101
sg17
(dp102
sg19
(S'self'
p103
tp104
sg22
(dp105
g103
(NNNtp106
ssg25
g26
sg27
S' Set Focus speed to fastest setting\n        Returns: Nothing'
p107
sg29
g96
sg30
g7
sg31
g32
sg35
(dp108
sg37
g99
sg38
g100
sg39
S''
sbsS'SetupDialog'
p109
(ihappydoclib.parseinfo.functioninfo
FunctionInfo
p110
(dp111
g4
((dp112
(dp113
tp114
sg17
(dp115
sg19
(S'self'
p116
S'fileName'
p117
tp118
sg22
(dp119
g116
(NNNtp120
sg117
(I1
S"'Focuser.cfg'"
Ntp121
ssg25
g26
sg27
S' Mandatory, in advanced mode additional\n        parameters, such as the scope position, guide rates etc. will be\n        set.\n        No dialog, just read config...\n        '
p122
sg29
g109
sg30
g7
sg31
g32
sg35
(dp123
sg37
g112
sg38
g113
sg39
S''
sbsS'focus_in'
p124
(ihappydoclib.parseinfo.functioninfo
FunctionInfo
p125
(dp126
g4
((dp127
(dp128
tp129
sg17
(dp130
S'LX200Error( "unsupported speed: " + speed + " for focusser" )'
p131
Nssg19
(S'self'
p132
S'speed'
p133
S't'
tp134
sg22
(dp135
g132
(NNNtp136
sg133
(I1
S'1'
Ntp137
sS't'
(I1
S'0'
Ntp138
ssg25
g26
sg27
S' Start Focuser moving inward (toward objective)\n        Returns: None'
p139
sg29
g124
sg30
g7
sg31
g32
sg35
(dp140
sg37
g127
sg38
g128
sg39
S''
sbsS'__repr__'
p141
(ihappydoclib.parseinfo.functioninfo
FunctionInfo
p142
(dp143
g4
((dp144
(dp145
tp146
sg17
(dp147
sg19
(S'self'
p148
tp149
sg22
(dp150
g148
(NNNtp151
ssg25
g26
sg27
S'Return a representation string.\n        '
p152
sg29
g141
sg30
g7
sg31
g32
sg35
(dp153
sg37
g144
sg38
g145
sg39
S''
sbsS'__init__'
p154
(ihappydoclib.parseinfo.functioninfo
FunctionInfo
p155
(dp156
g4
((dp157
(dp158
tp159
sg17
(dp160
sg19
(S'self'
p161
S'comPort'
p162
S'debug'
p163
tp164
sg22
(dp165
g163
(I1
S'False'
Ntp166
sg161
(NNNtp167
sg162
(NNNtp168
ssg25
g26
sg27
S'Constructor.\n        Arguments: \n        '
p169
sg29
g154
sg30
g7
sg31
g32
sg35
(dp170
sg37
g157
sg38
g158
sg39
S''
sbstp171
sg25
g26
sg27
S'LX200 class for Focuser movement and properties\n    \n    '
p172
sS'_class_member_info'
p173
(lp174
sg29
g6
sg30
g2
sg31
g32
sS'_base_class_info'
p175
(lp176
sg35
(dp177
sg37
g9
sg38
g10
sg39
S''
sbs(dp178
tp179
sS'_import_info'
p180
(ihappydoclib.parseinfo.imports
ImportInfo
p181
(dp182
S'_named_imports'
p183
(dp184
sS'_straight_imports'
p185
(lp186
sbsg25
g26
sg27
S''
sg29
S'Focuser'
p187
sg30
Nsg31
g32
sg35
(dp188
S'include_comments'
p189
I1
sS'cacheFilePrefix'
p190
S'.happydoc.'
p191
sS'useCache'
p192
I1
sS'docStringFormat'
p193
S'StructuredText'
p194
ssg37
g5
sg38
g178
sg39
S''
sbt.