(S'cfe750746b751e105a12253487fd594a'
p1
(ihappydoclib.parseinfo.moduleinfo
ModuleInfo
p2
(dp3
S'_namespaces'
p4
((dp5
S'Telescope'
p6
(ihappydoclib.parseinfo.classinfo
ClassInfo
p7
(dp8
g4
((dp9
(dp10
S'help_start'
p11
(ihappydoclib.parseinfo.functioninfo
FunctionInfo
p12
(dp13
g4
((dp14
(dp15
tp16
sS'_exception_info'
p17
(dp18
sS'_parameter_names'
p19
(S'self'
p20
tp21
sS'_parameter_info'
p22
(dp23
g20
(NNNtp24
ssS'_filename'
p25
S'c:\\python24\\lib\\site-packages\\lx200\\Telescope.py'
p26
sS'_docstring'
p27
S' Set help text cursor to the start of the first line.\n        Returns: <string>#\n        The <string> contains first string of the general handbox help file.'
p28
sS'_name'
p29
g11
sS'_parent'
p30
g7
sS'_comment_info'
p31
(dp32
(S'Telescope'
p33
S'get_distance'
tp34
S' D - Distance Bars\n'
p35
s(g33
S'set_site_num'
tp36
S'W - Site Select\n'
p37
s(g33
S'smart_PEC_toggle'
tp38
S' Q- Smart Drive Control\n'
p39
s(g33
S'fan_on'
tp40
S' f - Fan Command\n'
p41
s(g33
S'set_slew_rate'
tp42
S' R - Slew Rate Commands\n'
p43
s(g33
S'get_menu_entry'
tp44
S' G - Get Telescope Information\n'
p45
s(g33
S'auto_align'
tp46
S' A - Alignment Commands\n'
p47
s(g33
S'set_pointing_mode'
tp48
S'P - High Precision Toggle\n'
p49
s(g33
S'store_home'
tp50
S' h - Home Position Commands\n'
p51
s(g33
S'set_site'
tp52
S' S - Telescope Set Commands\n'
p53
s(g33
S'get_alignment'
tp54
S' ACK - Alignment Query\n'
p55
s(g33
S'AbortSlew'
tp56
S' Q - Movement Commands\n'
p57
s(g33
S'axis_rates'
tp58
S' M - Telescope Movement Commands\n'
p59
s(g33
S'lunar_sync'
tp60
S' C - Sync Control\n'
p61
s(g33
S'precision_toggle'
tp62
S' U - Precision Toggle\n'
p63
s(g33
S'help_start'
tp64
S'? - Help Text Retrieval    \n'
p65
s(g33
S'toggle_time_format'
tp66
S'H - Time Format Command\n'
p67
s(g33
S'track_rate_incr'
tp68
S' T - Tracking Commands\n'
p69
ssS'_configuration_values'
p70
(dp71
sS'_class_info'
p72
g14
sS'_function_info'
p73
g15
sS'_comments'
p74
g65
sbsS'get_RA'
p75
(ihappydoclib.parseinfo.functioninfo
FunctionInfo
p76
(dp77
g4
((dp78
(dp79
tp80
sg17
(dp81
sg19
(S'self'
p82
tp83
sg22
(dp84
g82
(NNNtp85
ssg25
g26
sg27
S' Get Telescope RA\n        Returns: HH:MM.T#\n         or HH:MM:SS#\n        Depending which precision is set for the telescope'
p86
sg29
g75
sg30
g7
sg31
g32
sg70
(dp87
sg72
g78
sg73
g79
sg74
S''
sbsS'set_manual_track_rate'
p88
(ihappydoclib.parseinfo.functioninfo
FunctionInfo
p89
(dp90
g4
((dp91
(dp92
tp93
sg17
(dp94
sg19
(S'self'
p95
S'rate'
p96
tp97
sg22
(dp98
g95
(NNNtp99
sg96
(NNNtp100
ssg25
g26
sg27
S"Set Manual rate do the ASCII expressed decimal DDD.DD\n        Returns: '1'"
p101
sg29
g88
sg30
g7
sg31
g32
sg70
(dp102
sg72
g91
sg73
g92
sg74
S''
sbsS'set_site_latitude'
p103
(ihappydoclib.parseinfo.functioninfo
FunctionInfo
p104
(dp105
g4
((dp106
(dp107
tp108
sg17
(dp109
S'LX200Error( "Invalid latitude: %s" % long )'
p110
Nssg19
(S'self'
p111
S'angle'
p112
tp113
sg22
(dp114
g111
(NNNtp115
sg112
(NNNtp116
ssg25
g26
sg27
S'Sets the current site latitude to sDD*MM#\n        Returns:\n        0 - Invalid\n        1 - Valid'
p117
sg29
g103
sg30
g7
sg31
g32
sg70
(dp118
sg72
g106
sg73
g107
sg74
S''
sbsS'set_lunar_latitude'
p119
(ihappydoclib.parseinfo.functioninfo
FunctionInfo
p120
(dp121
g4
((dp122
(dp123
tp124
sg17
(dp125
sg19
(S'self'
p126
S'lat'
p127
tp128
sg22
(dp129
g127
(NNNtp130
sg126
(NNNtp131
ssg25
g26
sg27
S'Sets target object to the specificed selenographic latitude on the Moon.\n        Returns 1- If moon is up and coordinates are accepted. sDD*MM\n        0 - If the coordinates are invalid'
p132
sg29
g119
sg30
g7
sg31
g32
sg70
(dp133
sg72
g122
sg73
g123
sg74
S''
sbsS'get_lower_limit'
p134
(ihappydoclib.parseinfo.functioninfo
FunctionInfo
p135
(dp136
g4
((dp137
(dp138
tp139
sg17
(dp140
sg19
(S'self'
p141
tp142
sg22
(dp143
g141
(NNNtp144
ssg25
g26
sg27
S' Get Lower Limit\n        Returns: DD*#\n            The highest elevation above the horizon that the telescope will be \n            allowed to slew to without a warning message.'
p145
sg29
g134
sg30
g7
sg31
g32
sg70
(dp146
sg72
g137
sg73
g138
sg74
S''
sbsS'setup_dialog'
p147
(ihappydoclib.parseinfo.functioninfo
FunctionInfo
p148
(dp149
g4
((dp150
(dp151
tp152
sg17
(dp153
sg19
(S'self'
p154
S'fileName'
p155
tp156
sg22
(dp157
g154
(NNNtp158
sg155
(I1
S"'LX200.cfg'"
Ntp159
ssg25
g26
sg27
S' Mandatory, in advanced mode additional\n        parameters, such as the scope position, guide rates etc. will be\n        set.\n        No dialog, just read config...\n        '
p160
sg29
g147
sg30
g7
sg31
g32
sg70
(dp161
sg72
g150
sg73
g151
sg74
S''
sbsS'get_tracking_rate'
p162
(ihappydoclib.parseinfo.functioninfo
FunctionInfo
p163
(dp164
g4
((dp165
(dp166
tp167
sg17
(dp168
sg19
(S'self'
p169
tp170
sg22
(dp171
g169
(NNNtp172
ssg25
g26
sg27
S' Get tracking rate\n        Returns: TT.T#\n        Current Track Frequency expressed in hertz assuming a synchonous motor design where a 60.0 Hz motor clock\n        would produce 1 revolution of the telescope in 24 hours.\n        '
p173
sg29
g162
sg30
g7
sg31
g32
sg70
(dp174
sg72
g165
sg73
g166
sg74
S''
sbsS'track_default'
p175
(ihappydoclib.parseinfo.functioninfo
FunctionInfo
p176
(dp177
g4
((dp178
(dp179
tp180
sg17
(dp181
sg19
(S'self'
p182
tp183
sg22
(dp184
g182
(NNNtp185
ssg25
g26
sg27
S' Select default tracking rate\n        Returns: Nothing'
p186
sg29
g175
sg30
g7
sg31
g32
sg70
(dp187
sg72
g178
sg73
g179
sg74
S''
sbsS'AbortSlew_East'
p188
(ihappydoclib.parseinfo.functioninfo
FunctionInfo
p189
(dp190
g4
((dp191
(dp192
tp193
sg17
(dp194
sg19
(S'self'
p195
tp196
sg22
(dp197
g195
(NNNtp198
ssg25
g26
sg27
S' Halt eastward Slews\n        Returns: Nothing'
p199
sg29
g188
sg30
g7
sg31
g32
sg70
(dp200
sg72
g191
sg73
g192
sg74
S''
sbsS'lunar_sync'
p201
(ihappydoclib.parseinfo.functioninfo
FunctionInfo
p202
(dp203
g4
((dp204
(dp205
tp206
sg17
(dp207
sg19
(S'self'
p208
S'coords'
p209
tp210
sg22
(dp211
g208
(NNNtp212
sg209
(I1
S'None'
Ntp213
ssg25
g26
sg27
S' Synchonize the telescope with the current Selenographic coordinates.'
p214
sg29
g201
sg30
g7
sg31
g32
sg70
(dp215
sg72
g204
sg73
g205
sg74
g61
sbsS'get_distance'
p216
(ihappydoclib.parseinfo.functioninfo
FunctionInfo
p217
(dp218
g4
((dp219
(dp220
tp221
sg17
(dp222
sg19
(S'self'
p223
tp224
sg22
(dp225
g223
(NNNtp226
ssg25
g26
sg27
S''
sg29
g216
sg30
g7
sg31
g32
sg70
(dp227
sg72
g219
sg73
g220
sg74
g35
sbsS'move_North'
p228
(ihappydoclib.parseinfo.functioninfo
FunctionInfo
p229
(dp230
g4
((dp231
(dp232
tp233
sg17
(dp234
sg19
(S'self'
p235
tp236
sg22
(dp237
g235
(NNNtp238
ssg25
g26
sg27
S' Move Telescope North at current slew rate\n        Returns: Nothing'
p239
sg29
g228
sg30
g7
sg31
g32
sg70
(dp240
sg72
g231
sg73
g232
sg74
S''
sbsS'move_South'
p241
(ihappydoclib.parseinfo.functioninfo
FunctionInfo
p242
(dp243
g4
((dp244
(dp245
tp246
sg17
(dp247
sg19
(S'self'
p248
tp249
sg22
(dp250
g248
(NNNtp251
ssg25
g26
sg27
S' Move Telescope South at current slew rate\n        Returns: Nothing'
p252
sg29
g241
sg30
g7
sg31
g32
sg70
(dp253
sg72
g244
sg73
g245
sg74
S''
sbsS'set_target_DEC'
p254
(ihappydoclib.parseinfo.functioninfo
FunctionInfo
p255
(dp256
g4
((dp257
(dp258
tp259
sg17
(dp260
sg19
(S'self'
p261
S'angle'
p262
tp263
sg22
(dp264
g261
(NNNtp265
sg262
(NNNtp266
ssg25
g26
sg27
S'Set target object declination to sDD*MM or sDD*MM:SS depending on \n        the current precision setting\n        Returns:\n        1 - Dec Accepted\n        0 - Dec invalid'
p267
sg29
g254
sg30
g7
sg31
g32
sg70
(dp268
sg72
g257
sg73
g258
sg74
S''
sbsS'get_site_lat'
p269
(ihappydoclib.parseinfo.functioninfo
FunctionInfo
p270
(dp271
g4
((dp272
(dp273
tp274
sg17
(dp275
sg19
(S'self'
p276
tp277
sg22
(dp278
g276
(NNNtp279
ssg25
g26
sg27
S' Get Current Site Latitude\n        Returns: sDD*MM#\n        The latitude of the current site. Positive inplies North latitude.'
p280
sg29
g269
sg30
g7
sg31
g32
sg70
(dp281
sg72
g272
sg73
g273
sg74
S''
sbsS'AbortSlew_West'
p282
(ihappydoclib.parseinfo.functioninfo
FunctionInfo
p283
(dp284
g4
((dp285
(dp286
tp287
sg17
(dp288
sg19
(S'self'
p289
tp290
sg22
(dp291
g289
(NNNtp292
ssg25
g26
sg27
S' Halt westward Slews\n        Returns: Nothing'
p293
sg29
g282
sg30
g7
sg31
g32
sg70
(dp294
sg72
g285
sg73
g286
sg74
S''
sbsS'get_Dec'
p295
(ihappydoclib.parseinfo.functioninfo
FunctionInfo
p296
(dp297
g4
((dp298
(dp299
tp300
sg17
(dp301
sg19
(S'self'
p302
tp303
sg22
(dp304
g302
(NNNtp305
ssg25
g26
sg27
S" Get Telescope Declination.\n        Returns: sDD*MM#\n        or sDD*MM'SS#\n        Depending upon the current precision setting for the telescope."
p306
sg29
g295
sg30
g7
sg31
g32
sg70
(dp307
sg72
g298
sg73
g299
sg74
S''
sbsS'precision_toggle'
p308
(ihappydoclib.parseinfo.functioninfo
FunctionInfo
p309
(dp310
g4
((dp311
(dp312
tp313
sg17
(dp314
S'LX200Error( "unsupported model: " + self.model + " for precision_toggle" )'
p315
Nssg19
(S'self'
p316
tp317
sg22
(dp318
g316
(NNNtp319
ssg25
g26
sg27
S' Toggle between low/hi precision positions\n        Low - RA displays and messages HH:MM.T sDD*MM\n        High - Dec/Az/El displays and messages HH:MM:SS sDD*MM:SS\n        Returns Nothing'
p320
sg29
g308
sg30
g7
sg31
g32
sg70
(dp321
sg72
g311
sg73
g312
sg74
g63
sbsS'set_slew_centering'
p322
(ihappydoclib.parseinfo.functioninfo
FunctionInfo
p323
(dp324
g4
((dp325
(dp326
tp327
sg17
(dp328
sg19
(S'self'
p329
tp330
sg22
(dp331
g329
(NNNtp332
ssg25
g26
sg27
S' Set Slew rate to Centering rate (2nd slowest)\n        Returns: Nothing'
p333
sg29
g322
sg30
g7
sg31
g32
sg70
(dp334
sg72
g325
sg73
g326
sg74
S''
sbsS'toggle_time_format'
p335
(ihappydoclib.parseinfo.functioninfo
FunctionInfo
p336
(dp337
g4
((dp338
(dp339
tp340
sg17
(dp341
sg19
(S'self'
p342
tp343
sg22
(dp344
g342
(NNNtp345
ssg25
g26
sg27
S' Toggle Between 24 and 12 hour time format\n        Returns: Nothing'
p346
sg29
g335
sg30
g7
sg31
g32
sg70
(dp347
sg72
g338
sg73
g339
sg74
g67
sbsS'get_sidereal_time'
p348
(ihappydoclib.parseinfo.functioninfo
FunctionInfo
p349
(dp350
g4
((dp351
(dp352
tp353
sg17
(dp354
sg19
(S'self'
p355
tp356
sg22
(dp357
g355
(NNNtp358
ssg25
g26
sg27
S' Get the Sidereal Time\n        Returns: HH:MM:SS#\n        The Sidereal Time as an ASCII Sexidecimal value in 24 hour format'
p359
sg29
g348
sg30
g7
sg31
g32
sg70
(dp360
sg72
g351
sg73
g352
sg74
S''
sbsS'set_max_elev'
p361
(ihappydoclib.parseinfo.functioninfo
FunctionInfo
p362
(dp363
g4
((dp364
(dp365
tp366
sg17
(dp367
sg19
(S'self'
p368
S'elev'
p369
tp370
sg22
(dp371
g368
(NNNtp372
sg369
(NNNtp373
ssg25
g26
sg27
S'Set highest elevation to which the telescope will slew - DD\n        Returns:\n        0 - Invalid\n        1 - Valid'
p374
sg29
g361
sg30
g7
sg31
g32
sg70
(dp375
sg72
g364
sg73
g365
sg74
S''
sbsS'align_home'
p376
(ihappydoclib.parseinfo.functioninfo
FunctionInfo
p377
(dp378
g4
((dp379
(dp380
tp381
sg17
(dp382
S'LX200Error( "unsupported model: " + self.model + " for home command" )'
p383
Nssg19
(S'self'
p384
tp385
sg22
(dp386
g384
(NNNtp387
ssg25
g26
sg27
S' LX200GPS and LX 16" Seeks the Home Position of the scope and sets/aligns\n        the scope based on the encoder values stored in non-volatile memory\n        Returns: Nothing\n        Autostar,LX200 - Igrnored ???'
p388
sg29
g376
sg30
g7
sg31
g32
sg70
(dp389
sg72
g379
sg73
g380
sg74
S''
sbsS'move_West'
p390
(ihappydoclib.parseinfo.functioninfo
FunctionInfo
p391
(dp392
g4
((dp393
(dp394
tp395
sg17
(dp396
sg19
(S'self'
p397
tp398
sg22
(dp399
g397
(NNNtp400
ssg25
g26
sg27
S' Move Telescope West at current slew rate\n        Returns: Nothing'
p401
sg29
g390
sg30
g7
sg31
g32
sg70
(dp402
sg72
g393
sg73
g394
sg74
S''
sbsS'help_prev'
p403
(ihappydoclib.parseinfo.functioninfo
FunctionInfo
p404
(dp405
g4
((dp406
(dp407
tp408
sg17
(dp409
sg19
(S'self'
p410
tp411
sg22
(dp412
g410
(NNNtp413
ssg25
g26
sg27
S' Retreive previous line of the handbox help text file.\n        Returns: <string>#\n        The <string> contains the next string of general handbox help file'
p414
sg29
g403
sg30
g7
sg31
g32
sg70
(dp415
sg72
g406
sg73
g407
sg74
S''
sbsS'set_align_mode'
p416
(ihappydoclib.parseinfo.functioninfo
FunctionInfo
p417
(dp418
g4
((dp419
(dp420
tp421
sg17
(dp422
S'LX200Error( "mode not in [\'A\',\'L\',\'P\']" )'
p423
Nssg19
(S'self'
p424
S'mode'
p425
tp426
sg22
(dp427
g424
(NNNtp428
sg425
(NNNtp429
ssg25
g26
sg27
S'Sets method of alignment used\n        L Land alignment mode\n        P Polar alignment mode\n        A AltAz alignment mode\n        Returns: nothing'
p430
sg29
g416
sg30
g7
sg31
g32
sg70
(dp431
sg72
g419
sg73
g420
sg74
S''
sbsS'set_pointing_mode'
p432
(ihappydoclib.parseinfo.functioninfo
FunctionInfo
p433
(dp434
g4
((dp435
(dp436
tp437
sg17
(dp438
sg19
(S'self'
p439
S'mode'
p440
tp441
sg22
(dp442
g439
(NNNtp443
sg440
(I1
S'None'
Ntp444
ssg25
g26
sg27
S' set or toggle precision\n        in high precision mode -- requires centering'
p445
sg29
g432
sg30
g7
sg31
g32
sg70
(dp446
sg72
g435
sg73
g436
sg74
g49
sbsS'set_site_num'
p447
(ihappydoclib.parseinfo.functioninfo
FunctionInfo
p448
(dp449
g4
((dp450
(dp451
tp452
sg17
(dp453
sg19
(S'self'
p454
S'num'
p455
tp456
sg22
(dp457
g454
(NNNtp458
sg455
(NNNtp459
ssg25
g26
sg27
S'Set current site to <n>, an ASCII digit in the range 0..3\n        Returns: Nothing'
p460
sg29
g447
sg30
g7
sg31
g32
sg70
(dp461
sg72
g450
sg73
g451
sg74
g37
sbsS'set_lunar_longitude'
p462
(ihappydoclib.parseinfo.functioninfo
FunctionInfo
p463
(dp464
g4
((dp465
(dp466
tp467
sg17
(dp468
sg19
(S'self'
p469
S'lon'
p470
tp471
sg22
(dp472
g469
(NNNtp473
sg470
(NNNtp474
ssg25
g26
sg27
S'Sets the target object to the specified selenogrphic longitude on the Moon\n        Returns 1 - If the Moon is up and coordinates are accepted. sDDD*MM\n        0 - If the coordinates are invalid for any reason.'
p475
sg29
g462
sg30
g7
sg31
g32
sg70
(dp476
sg72
g465
sg73
g466
sg74
S''
sbsS'set_site_name'
p477
(ihappydoclib.parseinfo.functioninfo
FunctionInfo
p478
(dp479
g4
((dp480
(dp481
tp482
sg17
(dp483
S'LX200Error( \'Site name cannot contain "#"\' )'
p484
NsS'LX200Error( "Invalid site name:" + name )'
p485
Nssg19
(S'self'
p486
S'site'
p487
S'name'
p488
tp489
sg22
(dp490
g486
(NNNtp491
sg487
(NNNtp492
sg488
(NNNtp493
ssg25
g26
sg27
S'Set site name to be <string>. LX200s only accept 3 character strings. Other scopes accept up to 15 characters.\n        Returns:\n        0 - Invalid\n        1 - Valid'
p494
sg29
g477
sg30
g7
sg31
g32
sg70
(dp495
sg72
g480
sg73
g481
sg74
S''
sbsS'determine_model'
p496
(ihappydoclib.parseinfo.functioninfo
FunctionInfo
p497
(dp498
g4
((dp499
(dp500
tp501
sg17
(dp502
sg19
(S'self'
p503
S'model'
p504
tp505
sg22
(dp506
g503
(NNNtp507
sg504
(I1
S'"LX200"'
Ntp508
ssg25
g26
sg27
S' TO DO \n        run a series of commands to test for pass/fail\n        '
p509
sg29
g496
sg30
g7
sg31
g32
sg70
(dp510
sg72
g499
sg73
g500
sg74
S''
sbsS'set_site_longitude'
p511
(ihappydoclib.parseinfo.functioninfo
FunctionInfo
p512
(dp513
g4
((dp514
(dp515
tp516
sg17
(dp517
S'LX200Error( "Invalid longitude: %s" % long )'
p518
Nssg19
(S'self'
p519
S'angle'
p520
tp521
sg22
(dp522
g519
(NNNtp523
sg520
(NNNtp524
ssg25
g26
sg27
S"Set current site's longitude to DDD*MM an ASCII position string\n        Returns:\n        0 - Invalid\n        1 - Valid"
p525
sg29
g511
sg30
g7
sg31
g32
sg70
(dp526
sg72
g514
sg73
g515
sg74
S''
sbsS'set_slew_rate'
p527
(ihappydoclib.parseinfo.functioninfo
FunctionInfo
p528
(dp529
g4
((dp530
(dp531
tp532
sg17
(dp533
sg19
(S'self'
p534
S'N'
tp535
sg22
(dp536
g534
(NNNtp537
sS'N'
(NNNtp538
ssg25
g26
sg27
S'Set maximum slew rate to N degrees per second. N is the range (2..8)\n        Returns:\n        0 - Invalid\n        1 - Valid'
p539
sg29
S'set_slew_rate'
p540
sg30
g7
sg31
g32
sg70
(dp541
sg72
g530
sg73
g531
sg74
g43
sbsS'axis_rates'
p542
(ihappydoclib.parseinfo.functioninfo
FunctionInfo
p543
(dp544
g4
((dp545
(dp546
tp547
sg17
(dp548
sg19
(S'Axis'
p549
tp550
sg22
(dp551
g549
(NNNtp552
ssg25
g26
sg27
S'Axis (TelescopeAxes) The axis about which rate information is desired \n        Return (Object) Collection of Rate objects describing the supported \n        rates of motion that can be supplied to the MoveAxis() method for the \n        specified axis.         '
p553
sg29
g542
sg30
g7
sg31
g32
sg70
(dp554
sg72
g545
sg73
g546
sg74
g59
sbsS'fan_on'
p555
(ihappydoclib.parseinfo.functioninfo
FunctionInfo
p556
(dp557
g4
((dp558
(dp559
tp560
sg17
(dp561
sg19
(S'self'
p562
tp563
sg22
(dp564
g562
(NNNtp565
ssg25
g26
sg27
S' \n        LX 16"- Turn on the tube exhaust fan\n\n        LX200GPSTurn on power to accessor panel\n        LX200 7" Maksutov - Turn on cooling fan\n        Autostar & LX200 < 16" - Not Supported\n        Returns: nothing'
p566
sg29
g555
sg30
g7
sg31
g32
sg70
(dp567
sg72
g558
sg73
g559
sg74
g41
sbsS'get_menu_entry'
p568
(ihappydoclib.parseinfo.functioninfo
FunctionInfo
p569
(dp570
g4
((dp571
(dp572
tp573
sg17
(dp574
sg19
(S'self'
p575
S'entry'
p576
tp577
sg22
(dp578
g576
(NNNtp579
sg575
(NNNtp580
ssg25
g26
sg27
S" Get Alignment Menu Entry \n        Returns: A '#' Terminated ASCII string. [LX200 legacy command]"
p581
sg29
g568
sg30
g7
sg31
g32
sg70
(dp582
sg72
g571
sg73
g572
sg74
g45
sbsS'set_tracking_rate'
p583
(ihappydoclib.parseinfo.functioninfo
FunctionInfo
p584
(dp585
g4
((dp586
(dp587
tp588
sg17
(dp589
sg19
(S'self'
p590
S'rate'
p591
tp592
sg22
(dp593
g590
(NNNtp594
sg591
(NNNtp595
ssg25
g26
sg27
S'Sets the current tracking rate to TT.T hertz, assuming a model where a 60.0 Hertz synchronous motor will cause the RA\n        axis to make exactly one revolution in 24 hours.\n        Returns:\n        0 - Invalid\n        1 - Valid'
p596
sg29
g583
sg30
g7
sg31
g32
sg70
(dp597
sg72
g586
sg73
g587
sg74
S''
sbsS'smart_PEC_toggle'
p598
(ihappydoclib.parseinfo.functioninfo
FunctionInfo
p599
(dp600
g4
((dp601
(dp602
tp603
sg17
(dp604
sg19
(S'self'
p605
tp606
sg22
(dp607
g605
(NNNtp608
ssg25
g26
sg27
S'Toggles Smart Drive PEC on and off for both axis\n        Returns: Nothing\n        Not supported on Autostar'
p609
sg29
g598
sg30
g7
sg31
g32
sg70
(dp610
sg72
g601
sg73
g602
sg74
g39
sbsS'track_rate_incr'
p611
(ihappydoclib.parseinfo.functioninfo
FunctionInfo
p612
(dp613
g4
((dp614
(dp615
tp616
sg17
(dp617
sg19
(S'self'
p618
tp619
sg22
(dp620
g618
(NNNtp621
ssg25
g26
sg27
S' Increment Manual rate by 0.1 Hz\n        Returns: Nothing'
p622
sg29
g611
sg30
g7
sg31
g32
sg70
(dp623
sg72
g614
sg73
g615
sg74
g69
sbsS'__repr__'
p624
(ihappydoclib.parseinfo.functioninfo
FunctionInfo
p625
(dp626
g4
((dp627
(dp628
tp629
sg17
(dp630
sg19
(S'self'
p631
tp632
sg22
(dp633
g631
(NNNtp634
ssg25
g26
sg27
S'Return a representation string.\n        '
p635
sg29
g624
sg30
g7
sg31
g32
sg70
(dp636
sg72
g627
sg73
g628
sg74
S''
sbsS'change_date'
p637
(ihappydoclib.parseinfo.functioninfo
FunctionInfo
p638
(dp639
g4
((dp640
(dp641
tp642
sg17
(dp643
sg19
(S'self'
p644
S'date'
p645
tp646
sg22
(dp647
g645
(NNNtp648
sg644
(NNNtp649
ssg25
g26
sg27
S'Change Handbox Date to MM/DD/YY\n        Returns: <D><string>\n        D = \'0\' if the date is invalid. The string is the null string.\n        D = \'1\' for valid dates and the string is "Updating Planetary Data"\n             #"\n        Note: For LX200GPS this is the UTC data!'
p650
sg29
g637
sg30
g7
sg31
g32
sg70
(dp651
sg72
g640
sg73
g641
sg74
S''
sbsS'get_site_names'
p652
(ihappydoclib.parseinfo.functioninfo
FunctionInfo
p653
(dp654
g4
((dp655
(dp656
tp657
sg17
(dp658
sg19
(S'self'
p659
tp660
sg22
(dp661
g659
(NNNtp662
ssg25
g26
sg27
S' return all names in a List\n        '
p663
sg29
g652
sg30
g7
sg31
g32
sg70
(dp664
sg72
g655
sg73
g656
sg74
S''
sbsS'store_home'
p665
(ihappydoclib.parseinfo.functioninfo
FunctionInfo
p666
(dp667
g4
((dp668
(dp669
tp670
sg17
(dp671
sg19
(S'self'
p672
tp673
sg22
(dp674
g672
(NNNtp675
ssg25
g26
sg27
S' LX200GPS and LX 16" Seeks Home Position and stores the encoder values\n        from the aligned telescope at the home position in the nonvolatile memory of the\n        scope.\n        Returns: Nothing\n        Autostar,LX200 - Ignored ???'
p676
sg29
g665
sg30
g7
sg31
g32
sg70
(dp677
sg72
g668
sg73
g669
sg74
g51
sbsS'track_rate_dec'
p678
(ihappydoclib.parseinfo.functioninfo
FunctionInfo
p679
(dp680
g4
((dp681
(dp682
tp683
sg17
(dp684
sg19
(S'self'
p685
tp686
sg22
(dp687
g685
(NNNtp688
ssg25
g26
sg27
S' Decrement Manual rate by 0.1 Hz\n        Returns: Nothing'
p689
sg29
g678
sg30
g7
sg31
g32
sg70
(dp690
sg72
g681
sg73
g682
sg74
S''
sbsS'get_local_time_24'
p691
(ihappydoclib.parseinfo.functioninfo
FunctionInfo
p692
(dp693
g4
((dp694
(dp695
tp696
sg17
(dp697
sg19
(S'self'
p698
tp699
sg22
(dp700
g698
(NNNtp701
ssg25
g26
sg27
S' Get Local Time in 24 hour format\n        Returns: HH:MM:SS#      \n        The Local Time in 24-hour Format'
p702
sg29
g691
sg30
g7
sg31
g32
sg70
(dp703
sg72
g694
sg73
g695
sg74
S''
sbsS'get_temperature'
p704
(ihappydoclib.parseinfo.functioninfo
FunctionInfo
p705
(dp706
g4
((dp707
(dp708
tp709
sg17
(dp710
S'LX200Error( "unsupported model: " + self.model + " for Optical Tube Assembly Temperature" )'
p711
Nssg19
(S'self'
p712
tp713
sg22
(dp714
g712
(NNNtp715
ssg25
g26
sg27
S" LX200GPS - Return Optical Tube Assembly Temperature\n        Returns <sdd.ddd>  - a '#' terminated signed ASCII real number \n        indicating the Celsius ambient temperature.\n        All others - Not supported"
p716
sg29
g704
sg30
g7
sg31
g32
sg70
(dp717
sg72
g707
sg73
g708
sg74
S''
sbsS'get_local_time12'
p718
(ihappydoclib.parseinfo.functioninfo
FunctionInfo
p719
(dp720
g4
((dp721
(dp722
tp723
sg17
(dp724
sg19
(S'self'
p725
tp726
sg22
(dp727
g725
(NNNtp728
ssg25
g26
sg27
S' Get Local Telescope Time In 12 Hour Format\n        Returns: HH:MM:SS#\n        The time in 12 format'
p729
sg29
g718
sg30
g7
sg31
g32
sg70
(dp730
sg72
g721
sg73
g722
sg74
S''
sbsS'set_time_lon'
p731
(ihappydoclib.parseinfo.functioninfo
FunctionInfo
p732
(dp733
g4
((dp734
(dp735
tp736
sg17
(dp737
sg19
(S'self'
p738
S'time'
p739
S'lon'
p740
tp741
sg22
(dp742
g738
(NNNtp743
sg740
(NNNtp744
sg739
(NNNtp745
ssg25
g26
sg27
S' Since the time setting in seconds is 4x better than the Lon setting\n        of minutes, I propose using the combination of Lon and time to minimize \n        error of rounding: ie, if Lon is 117deg15\'19" use the time setting to \n        compensate for the 19".\n        '
p746
sg29
g731
sg30
g7
sg31
g32
sg70
(dp747
sg72
g734
sg73
g735
sg74
S''
sbsS'get_high_limit'
p748
(ihappydoclib.parseinfo.functioninfo
FunctionInfo
p749
(dp750
g4
((dp751
(dp752
tp753
sg17
(dp754
sg19
(S'self'
p755
tp756
sg22
(dp757
g755
(NNNtp758
ssg25
g26
sg27
S' Get High Limit\n        Returns: sDD*\n        The minimum elevation of an object above the horizon to which the \n        telescope will slew with reporting a\n        "Below Horizon" error.'
p759
sg29
g748
sg30
g7
sg31
g32
sg70
(dp760
sg72
g751
sg73
g752
sg74
S''
sbsS'set_slew_find'
p761
(ihappydoclib.parseinfo.functioninfo
FunctionInfo
p762
(dp763
g4
((dp764
(dp765
tp766
sg17
(dp767
sg19
(S'self'
p768
tp769
sg22
(dp770
g768
(NNNtp771
ssg25
g26
sg27
S' Set Slew rate to Find Rate (2nd Fastest)\n        Returns: Nothing'
p772
sg29
g761
sg30
g7
sg31
g32
sg70
(dp773
sg72
g764
sg73
g765
sg74
S''
sbsS'AbortSlew'
p774
(ihappydoclib.parseinfo.functioninfo
FunctionInfo
p775
(dp776
g4
((dp777
(dp778
tp779
sg17
(dp780
sg19
(S'self'
p781
S'direction'
p782
tp783
sg22
(dp784
g781
(NNNtp785
sg782
(I1
S'None'
Ntp786
ssg25
g26
sg27
S' Halt all current slewing\n        Returns:Nothing'
p787
sg29
g774
sg30
g7
sg31
g32
sg70
(dp788
sg72
g777
sg73
g778
sg74
g57
sbsS'move_to_object'
p789
(ihappydoclib.parseinfo.functioninfo
FunctionInfo
p790
(dp791
g4
((dp792
(dp793
tp794
sg17
(dp795
sg19
(S'self'
p796
tp797
sg22
(dp798
g796
(NNNtp799
ssg25
g26
sg27
S' Slew to Target Object\n        Returns:\n        0 Slew is Possible\n        1<string> Object Below Horizon w/string message\n        2<string> Object Below Higher w/string message'
p800
sg29
g789
sg30
g7
sg31
g32
sg70
(dp801
sg72
g792
sg73
g793
sg74
S''
sbsS'get_site3'
p802
(ihappydoclib.parseinfo.functioninfo
FunctionInfo
p803
(dp804
g4
((dp805
(dp806
tp807
sg17
(dp808
sg19
(S'self'
p809
tp810
sg22
(dp811
g809
(NNNtp812
ssg25
g26
sg27
S" Get Site 3 Name\n        Returns: <string>#\n        A '#' terminated string with the name of the requested site."
p813
sg29
g802
sg30
g7
sg31
g32
sg70
(dp814
sg72
g805
sg73
g806
sg74
S''
sbsS'get_site2'
p815
(ihappydoclib.parseinfo.functioninfo
FunctionInfo
p816
(dp817
g4
((dp818
(dp819
tp820
sg17
(dp821
sg19
(S'self'
p822
tp823
sg22
(dp824
g822
(NNNtp825
ssg25
g26
sg27
S" Get Site 2 Name\n        Returns: <string>#\n        A '#' terminated string with the name of the requested site."
p826
sg29
g815
sg30
g7
sg31
g32
sg70
(dp827
sg72
g818
sg73
g819
sg74
S''
sbsS'get_site1'
p828
(ihappydoclib.parseinfo.functioninfo
FunctionInfo
p829
(dp830
g4
((dp831
(dp832
tp833
sg17
(dp834
sg19
(S'self'
p835
tp836
sg22
(dp837
g835
(NNNtp838
ssg25
g26
sg27
S" Get Site 1 Name\n        Returns: <string>#\n        A '#' terminated string with the name of the requested site."
p839
sg29
g828
sg30
g7
sg31
g32
sg70
(dp840
sg72
g831
sg73
g832
sg74
S''
sbsS'get_alignment'
p841
(ihappydoclib.parseinfo.functioninfo
FunctionInfo
p842
(dp843
g4
((dp844
(dp845
tp846
sg17
(dp847
S'LX200Error("get_alignment - port write error:  %s" %(sys.exc_info() [ 0 ] ) )'
p848
Nssg19
(S'self'
p849
tp850
sg22
(dp851
g849
(NNNtp852
ssg25
g26
sg27
S' Query of alignment mounting mode.\n        Returns:\n        A If scope in AltAz Mode\n        L If scope in Land Mode\n        P If scope in Polar Mode'
p853
sg29
g841
sg30
g7
sg31
g32
sg70
(dp854
sg72
g844
sg73
g845
sg74
g55
sbsS'set_slew_max'
p855
(ihappydoclib.parseinfo.functioninfo
FunctionInfo
p856
(dp857
g4
((dp858
(dp859
tp860
sg17
(dp861
sg19
(S'self'
p862
tp863
sg22
(dp864
g862
(NNNtp865
ssg25
g26
sg27
S' Set Slew rate to max (fastest)\n        Returns: Nothing'
p866
sg29
g855
sg30
g7
sg31
g32
sg70
(dp867
sg72
g858
sg73
g859
sg74
S''
sbsS'get_site4'
p868
(ihappydoclib.parseinfo.functioninfo
FunctionInfo
p869
(dp870
g4
((dp871
(dp872
tp873
sg17
(dp874
sg19
(S'self'
p875
tp876
sg22
(dp877
g875
(NNNtp878
ssg25
g26
sg27
S" Get Site 4 Name\n        Returns: <string>#\n        A '#' terminated string with the name of the requested site."
p879
sg29
g868
sg30
g7
sg31
g32
sg70
(dp880
sg72
g871
sg73
g872
sg74
S''
sbsS'move_East'
p881
(ihappydoclib.parseinfo.functioninfo
FunctionInfo
p882
(dp883
g4
((dp884
(dp885
tp886
sg17
(dp887
sg19
(S'self'
p888
S'rate'
p889
S't'
tp890
sg22
(dp891
g888
(NNNtp892
sg889
(I1
S'None'
Ntp893
sS't'
(I1
S'None'
Ntp894
ssg25
g26
sg27
S' Move Telescope East at current slew rate\n        Returns: Nothing'
p895
sg29
g881
sg30
g7
sg31
g32
sg70
(dp896
sg72
g884
sg73
g885
sg74
S''
sbsS'get_Altitude'
p897
(ihappydoclib.parseinfo.functioninfo
FunctionInfo
p898
(dp899
g4
((dp900
(dp901
tp902
sg17
(dp903
sg19
(S'self'
p904
tp905
sg22
(dp906
g904
(NNNtp907
ssg25
g26
sg27
S" Get Telescope Altitude\n        Returns: sDD*MM#\n        or sDD*MM'SS#\n        The current scope altitude. \n        The returned format depending on the current precision setting."
p908
sg29
g897
sg30
g7
sg31
g32
sg70
(dp909
sg72
g900
sg73
g901
sg74
S''
sbsS'get_current_long'
p910
(ihappydoclib.parseinfo.functioninfo
FunctionInfo
p911
(dp912
g4
((dp913
(dp914
tp915
sg17
(dp916
sg19
(S'self'
p917
tp918
sg22
(dp919
g917
(NNNtp920
ssg25
g26
sg27
S' Get Current Site Longitude\n        Returns: sDDD*MM")\n        The current site Longitude. East Longitudes are expressed as negative'
p921
sg29
g910
sg30
g7
sg31
g32
sg70
(dp922
sg72
g913
sg73
g914
sg74
S''
sbsS'set_target_AZ'
p923
(ihappydoclib.parseinfo.functioninfo
FunctionInfo
p924
(dp925
g4
((dp926
(dp927
tp928
sg17
(dp929
sg19
(S'self'
p930
tp931
sg22
(dp932
g930
(NNNtp933
ssg25
g26
sg27
S'Sets the target Object Azimuth [LX 16" and LX200GPS only]\n        Returns:\n        0 - Invalid\n        1 - Valid'
p934
sg29
g923
sg30
g7
sg31
g32
sg70
(dp935
sg72
g926
sg73
g927
sg74
S''
sbsS'set_site'
p936
(ihappydoclib.parseinfo.functioninfo
FunctionInfo
p937
(dp938
g4
((dp939
(dp940
tp941
sg17
(dp942
sg19
(S'self'
p943
S'site'
p944
tp945
sg22
(dp946
g943
(NNNtp947
sg944
(NNNtp948
ssg25
g26
sg27
S'Set current site to <n>, an ASCII digit in the range 0..3\n        Returns: Nothing'
p949
sg29
g936
sg30
g7
sg31
g32
sg70
(dp950
sg72
g939
sg73
g940
sg74
g53
sbsS'get_home_status'
p951
(ihappydoclib.parseinfo.functioninfo
FunctionInfo
p952
(dp953
g4
((dp954
(dp955
tp956
sg17
(dp957
sg19
(S'self'
p958
tp959
sg22
(dp960
g958
(NNNtp961
ssg25
g26
sg27
S' Autostar, LX200GPS and LX 16" Query Home Status\n        Returns:\n        0 Home Search Failed\n        1 Home Search Found\n        2 Home Search in Progress        \n        LX200 Not Supported'
p962
sg29
g951
sg30
g7
sg31
g32
sg70
(dp963
sg72
g954
sg73
g955
sg74
S''
sbsS'set_target_RA'
p964
(ihappydoclib.parseinfo.functioninfo
FunctionInfo
p965
(dp966
g4
((dp967
(dp968
tp969
sg17
(dp970
sg19
(S'self'
p971
S'angle'
p972
tp973
sg22
(dp974
g971
(NNNtp975
sg972
(NNNtp976
ssg25
g26
sg27
S'Set target object RA to HH:MM.T or HH:MM:SS depending on the current precision setting.\n        Angle is a float\n        Returns:\n        0 - Invalid\n        1 - Valid'
p977
sg29
g964
sg30
g7
sg31
g32
sg70
(dp978
sg72
g967
sg73
g968
sg74
S''
sbsS'track_custom'
p979
(ihappydoclib.parseinfo.functioninfo
FunctionInfo
p980
(dp981
g4
((dp982
(dp983
tp984
sg17
(dp985
sg19
(S'self'
p986
tp987
sg22
(dp988
g986
(NNNtp989
ssg25
g26
sg27
S' Select custom tracking rate\n        Returns: Nothing'
p990
sg29
g979
sg30
g7
sg31
g32
sg70
(dp991
sg72
g982
sg73
g983
sg74
S''
sbsS'auto_align'
p992
(ihappydoclib.parseinfo.functioninfo
FunctionInfo
p993
(dp994
g4
((dp995
(dp996
tp997
sg17
(dp998
S'LX200Error( "unsupported alignment: " + align_res + " for auto_align" )'
p999
NsS'LX200Error( "unsupported model: " + self.model + " for auto_align" )'
p1000
NsS'LX200Error( "auto_align failed" )'
p1001
Nssg19
(S'self'
p1002
tp1003
sg22
(dp1004
g1002
(NNNtp1005
ssg25
g26
sg27
S' Start Telescope Automatic Alignment Sequence [LX200GPS only]\n        Returns:\n        1: When complete (can take several minutes).\n        0: If scope not AzEl Mounted or align fails'
p1006
sg29
g992
sg30
g7
sg31
g32
sg70
(dp1007
sg72
g995
sg73
g996
sg74
g47
sbsS'get_calendar_format'
p1008
(ihappydoclib.parseinfo.functioninfo
FunctionInfo
p1009
(dp1010
g4
((dp1011
(dp1012
tp1013
sg17
(dp1014
sg19
(S'self'
p1015
tp1016
sg22
(dp1017
g1015
(NNNtp1018
ssg25
g26
sg27
S' Get Calendar Format\n        Returns: 12#\n         or 24#\n        Depending on the current telescope format setting.'
p1019
sg29
g1008
sg30
g7
sg31
g32
sg70
(dp1020
sg72
g1011
sg73
g1012
sg74
S''
sbsS'ser_slew_guide'
p1021
(ihappydoclib.parseinfo.functioninfo
FunctionInfo
p1022
(dp1023
g4
((dp1024
(dp1025
tp1026
sg17
(dp1027
sg19
(S'self'
p1028
tp1029
sg22
(dp1030
g1028
(NNNtp1031
ssg25
g26
sg27
S' Set Slew rate to Guiding Rate (slowest)\n        Returns: Nothing'
p1032
sg29
g1021
sg30
g7
sg31
g32
sg70
(dp1033
sg72
g1024
sg73
g1025
sg74
S''
sbsS'get_date'
p1034
(ihappydoclib.parseinfo.functioninfo
FunctionInfo
p1035
(dp1036
g4
((dp1037
(dp1038
tp1039
sg17
(dp1040
sg19
(S'self'
p1041
tp1042
sg22
(dp1043
g1041
(NNNtp1044
ssg25
g26
sg27
S' Get current date.\n        Returns: MM/DD/YY#\n        The current local calendar date for the telescope.'
p1045
sg29
g1034
sg30
g7
sg31
g32
sg70
(dp1046
sg72
g1037
sg73
g1038
sg74
S''
sbsS'track_lunar'
p1047
(ihappydoclib.parseinfo.functioninfo
FunctionInfo
p1048
(dp1049
g4
((dp1050
(dp1051
tp1052
sg17
(dp1053
sg19
(S'self'
p1054
tp1055
sg22
(dp1056
g1054
(NNNtp1057
ssg25
g26
sg27
S' Set Lunar Tracking Rate\n        Returns: Nothing'
p1058
sg29
g1047
sg30
g7
sg31
g32
sg70
(dp1059
sg72
g1050
sg73
g1051
sg74
S''
sbsS'__init__'
p1060
(ihappydoclib.parseinfo.functioninfo
FunctionInfo
p1061
(dp1062
g4
((dp1063
(dp1064
tp1065
sg17
(dp1066
S'LX200Error( "unsupported model: " + model )'
p1067
Nssg19
(S'self'
p1068
S'comPort'
p1069
S'model'
p1070
S'debug'
p1071
tp1072
sg22
(dp1073
g1071
(I1
S'False'
Ntp1074
sg1070
(I1
S"'LX200'"
Ntp1075
sg1068
(NNNtp1076
sg1069
(NNNtp1077
ssg25
g26
sg27
S'Constructor.\n        '
p1078
sg29
g1060
sg30
g7
sg31
g32
sg70
(dp1079
sg72
g1063
sg73
g1064
sg74
S''
sbsS'help_next'
p1080
(ihappydoclib.parseinfo.functioninfo
FunctionInfo
p1081
(dp1082
g4
((dp1083
(dp1084
tp1085
sg17
(dp1086
sg19
(S'self'
p1087
tp1088
sg22
(dp1089
g1087
(NNNtp1090
ssg25
g26
sg27
S' Retrieve the next line of help text\n        Returns: <string>#\n        The <string> contains the next string of general handbox help file'
p1091
sg29
g1080
sg30
g7
sg31
g32
sg70
(dp1092
sg72
g1083
sg73
g1084
sg74
S''
sbsS'move_to_current_target'
p1093
(ihappydoclib.parseinfo.functioninfo
FunctionInfo
p1094
(dp1095
g4
((dp1096
(dp1097
tp1098
sg17
(dp1099
sg19
(S'self'
p1100
tp1101
sg22
(dp1102
g1100
(NNNtp1103
ssg25
g26
sg27
S' Autostar, LX 16", LX200GPS - Slew to target Alt and Az\n        Returns:\n        0 - No fault\n        1 - Fault\n        LX200 - Not supported'
p1104
sg29
g1093
sg30
g7
sg31
g32
sg70
(dp1105
sg72
g1096
sg73
g1097
sg74
S''
sbsS'get_UTC_offset'
p1106
(ihappydoclib.parseinfo.functioninfo
FunctionInfo
p1107
(dp1108
g4
((dp1109
(dp1110
tp1111
sg17
(dp1112
sg19
(S'self'
p1113
tp1114
sg22
(dp1115
g1113
(NNNtp1116
ssg25
g26
sg27
S' Get UTC offset time\n        Returns: sHH#\n         or sHH.H#\n        The number of decimal hours to add to local time to convert it to UTC. \n        If the number is a whole number the  sHH#\n         form is returned, otherwise the longer form is return. On Autostar and \n         LX200GPS, the daylight savings setting in effect is factored into \n         returned value.'
p1117
sg29
g1106
sg30
g7
sg31
g32
sg70
(dp1118
sg72
g1109
sg73
g1110
sg74
S''
sbsS'toggle_precision'
p1119
(ihappydoclib.parseinfo.functioninfo
FunctionInfo
p1120
(dp1121
g4
((dp1122
(dp1123
tp1124
sg17
(dp1125
sg19
(S'self'
p1126
tp1127
sg22
(dp1128
g1126
(NNNtp1129
ssg25
g26
sg27
S' Toggles High Precsion Pointing. When High precision pointing is \n        enabled scope will first allow the operator to center a\n        nearby bright star before moving to the actual taget.\n        Returns: <string>\n        "HIGH PRECISION" Current setting after this command.\n        "LOW PRECISION" Current setting after this command.'
p1130
sg29
g1119
sg30
g7
sg31
g32
sg70
(dp1131
sg72
g1122
sg73
g1123
sg74
S''
sbsS'FindHome'
p1132
(ihappydoclib.parseinfo.functioninfo
FunctionInfo
p1133
(dp1134
g4
((dp1135
(dp1136
tp1137
sg17
(dp1138
S'LX200Error( "FindHome failed" )'
p1139
Nssg19
(S'self'
p1140
tp1141
sg22
(dp1142
g1140
(NNNtp1143
ssg25
g26
sg27
S' Autostar, LX200GPS and LX 16"Slew to Park Position\n        Returns: Nothing'
p1144
sg29
g1132
sg30
g7
sg31
g32
sg70
(dp1145
sg72
g1135
sg73
g1136
sg74
S''
sbsS'AbortSlew_North'
p1146
(ihappydoclib.parseinfo.functioninfo
FunctionInfo
p1147
(dp1148
g4
((dp1149
(dp1150
tp1151
sg17
(dp1152
sg19
(S'self'
p1153
tp1154
sg22
(dp1155
g1153
(NNNtp1156
ssg25
g26
sg27
S' Halt northward Slews\n        Returns: Nothing'
p1157
sg29
g1146
sg30
g7
sg31
g32
sg70
(dp1158
sg72
g1149
sg73
g1150
sg74
S''
sbsS'set_UTC_offset'
p1159
(ihappydoclib.parseinfo.functioninfo
FunctionInfo
p1160
(dp1161
g4
((dp1162
(dp1163
tp1164
sg17
(dp1165
sg19
(S'self'
p1166
S'hours'
p1167
tp1168
sg22
(dp1169
g1167
(NNNtp1170
sg1166
(NNNtp1171
ssg25
g26
sg27
S'Set the number of hours added to local time to yield UTC "sHH.H"\n        Returns:\n        0 - Invalid\n        1 - Valid'
p1172
sg29
g1159
sg30
g7
sg31
g32
sg70
(dp1173
sg72
g1162
sg73
g1163
sg74
S''
sbsS'get_site'
p1174
(ihappydoclib.parseinfo.functioninfo
FunctionInfo
p1175
(dp1176
g4
((dp1177
(dp1178
tp1179
sg17
(dp1180
sg19
(S'self'
p1181
S'siteNum'
p1182
tp1183
sg22
(dp1184
g1181
(NNNtp1185
sg1182
(NNNtp1186
ssg25
g26
sg27
S' return site name\n        '
p1187
sg29
g1174
sg30
g7
sg31
g32
sg70
(dp1188
sg72
g1177
sg73
g1178
sg74
S''
sbsS'set_sideral_time'
p1189
(ihappydoclib.parseinfo.functioninfo
FunctionInfo
p1190
(dp1191
g4
((dp1192
(dp1193
tp1194
sg17
(dp1195
sg19
(S'self'
p1196
S'stime'
p1197
tp1198
sg22
(dp1199
g1196
(NNNtp1200
sg1197
(NNNtp1201
ssg25
g26
sg27
S'Sets the local sideral time to HH:MM:SS\n        Returns:\n        0 - Invalid\n        1 - Valid'
p1202
sg29
g1189
sg30
g7
sg31
g32
sg70
(dp1203
sg72
g1192
sg73
g1193
sg74
S''
sbsS'set_precision_type'
p1204
(ihappydoclib.parseinfo.functioninfo
FunctionInfo
p1205
(dp1206
g4
((dp1207
(dp1208
tp1209
sg17
(dp1210
sg19
(S'self'
p1211
S'pType'
p1212
tp1213
sg22
(dp1214
g1211
(NNNtp1215
sg1212
(NNNtp1216
ssg25
g26
sg27
S'Sets telescope to give various position responses\n         No command to check precision, so read something'
p1217
sg29
g1204
sg30
g7
sg31
g32
sg70
(dp1218
sg72
g1207
sg73
g1208
sg74
S''
sbsS'set_target_alt'
p1219
(ihappydoclib.parseinfo.functioninfo
FunctionInfo
p1220
(dp1221
g4
((dp1222
(dp1223
tp1224
sg17
(dp1225
sg19
(S'self'
p1226
S'alt'
p1227
tp1228
sg22
(dp1229
g1226
(NNNtp1230
sg1227
(NNNtp1231
ssg25
g26
sg27
S'Set target object altitude to sDD*MM# or sDD*MM\'SS"\n         [LX 16", Autostar, LX200GPS]\n        Returns:\n        0 Object within slew range\n        1 Object out of slew range'
p1232
sg29
g1219
sg30
g7
sg31
g32
sg70
(dp1233
sg72
g1222
sg73
g1223
sg74
S''
sbsS'fan_off'
p1234
(ihappydoclib.parseinfo.functioninfo
FunctionInfo
p1235
(dp1236
g4
((dp1237
(dp1238
tp1239
sg17
(dp1240
sg19
(S'self'
p1241
tp1242
sg22
(dp1243
g1241
(NNNtp1244
ssg25
g26
sg27
S' LX 16"- Turn off tube exhaust fan\n        LX200GPS - Turn off power to accessory panel\n        LX200 7" Maksutov - Turn off cooling fan\n        Autostar & LX200 < 16" - Not Supported\n        Returns: Nothing'
p1245
sg29
g1234
sg30
g7
sg31
g32
sg70
(dp1246
sg72
g1237
sg73
g1238
sg74
S''
sbsS'get_AZ'
p1247
(ihappydoclib.parseinfo.functioninfo
FunctionInfo
p1248
(dp1249
g4
((dp1250
(dp1251
tp1252
sg17
(dp1253
sg19
(S'self'
p1254
tp1255
sg22
(dp1256
g1254
(NNNtp1257
ssg25
g26
sg27
S" Get telescope azimuth\n        Returns: DDD*MM#T or DDD*MM'SS#\n        The current telescope Azimuth depending on the selected precision."
p1258
sg29
g1247
sg30
g7
sg31
g32
sg70
(dp1259
sg72
g1250
sg73
g1251
sg74
S''
sbsS'AbortSlew_South'
p1260
(ihappydoclib.parseinfo.functioninfo
FunctionInfo
p1261
(dp1262
g4
((dp1263
(dp1264
tp1265
sg17
(dp1266
sg19
(S'self'
p1267
tp1268
sg22
(dp1269
g1267
(NNNtp1270
ssg25
g26
sg27
S' Halt southward Slews\n        Returns: Nothing'
p1271
sg29
g1260
sg30
g7
sg31
g32
sg70
(dp1272
sg72
g1263
sg73
g1264
sg74
S''
sbsS'can_move_axis'
p1273
(ihappydoclib.parseinfo.functioninfo
FunctionInfo
p1274
(dp1275
g4
((dp1276
(dp1277
tp1278
sg17
(dp1279
sg19
(S'Axis'
p1280
tp1281
sg22
(dp1282
g1280
(NNNtp1283
ssg25
g26
sg27
S'Axis (TelescopeAxes) The identifier for the axis to be tested \n        Return (Boolean) True if the telescope can be controlled about the \n        specified axis via the MoveAxis() method.         '
p1284
sg29
g1273
sg30
g7
sg31
g32
sg70
(dp1285
sg72
g1276
sg73
g1277
sg74
S''
sbsS'set_local_time'
p1286
(ihappydoclib.parseinfo.functioninfo
FunctionInfo
p1287
(dp1288
g4
((dp1289
(dp1290
tp1291
sg17
(dp1292
sg19
(S'self'
p1293
S'ltime'
p1294
tp1295
sg22
(dp1296
g1293
(NNNtp1297
sg1294
(NNNtp1298
ssg25
g26
sg27
S'Set the local Time "HH:MM:SS" \n        Returns:\n        0 - Invalid\n        1 - Valid'
p1299
sg29
g1286
sg30
g7
sg31
g32
sg70
(dp1300
sg72
g1289
sg73
g1290
sg74
S''
sbstp1301
sg25
g26
sg27
S'LX200 class for scope movement and properties    \n    Note: \n    - two ports can be opened on the LX200 \n    - as many scopes as COM ports available can be driven   \n    '
p1302
sS'_class_member_info'
p1303
(lp1304
sg29
g6
sg30
g2
sg31
g32
sS'_base_class_info'
p1305
(lp1306
sg70
(dp1307
sg72
g9
sg73
g10
sg74
S''
sbs(dp1308
tp1309
sS'_import_info'
p1310
(ihappydoclib.parseinfo.imports
ImportInfo
p1311
(dp1312
S'_named_imports'
p1313
(dp1314
sS'_straight_imports'
p1315
(lp1316
sbsg25
g26
sg27
S''
sg29
S'Telescope'
p1317
sg30
Nsg31
g32
sg70
(dp1318
S'include_comments'
p1319
I1
sS'cacheFilePrefix'
p1320
S'.happydoc.'
p1321
sS'useCache'
p1322
I1
sS'docStringFormat'
p1323
S'StructuredText'
p1324
ssg72
g5
sg73
g1308
sg74
S''
sbt.