(S'2eb2ae308c533867f3edf254dc26575e'
p1
(ihappydoclib.parseinfo.moduleinfo
ModuleInfo
p2
(dp3
S'_namespaces'
p4
((dp5
S'Derotator'
p6
(ihappydoclib.parseinfo.classinfo
ClassInfo
p7
(dp8
g4
((dp9
(dp10
S'setOff'
p11
(ihappydoclib.parseinfo.functioninfo
FunctionInfo
p12
(dp13
g4
((dp14
(dp15
tp16
sS'_exception_info'
p17
(dp18
sS'_parameter_names'
p19
(S'self'
p20
tp21
sS'_parameter_info'
p22
(dp23
g20
(NNNtp24
ssS'_filename'
p25
S'c:\\python24\\lib\\site-packages\\lx200\\Derotator.py'
p26
sS'_docstring'
p27
S' Turn off Field Derotator, halt slew in progress. [Lx 16" and LX200GPS]\n        Returns Nothing'
p28
sS'_name'
p29
g11
sS'_parent'
p30
g7
sS'_comment_info'
p31
(dp32
(S'Derotator'
S'setOn'
tp33
S' r - Field Derotator Commands\n'
p34
ssS'_configuration_values'
p35
(dp36
sS'_class_info'
p37
g14
sS'_function_info'
p38
g15
sS'_comments'
p39
S''
sbsS'setOn'
p40
(ihappydoclib.parseinfo.functioninfo
FunctionInfo
p41
(dp42
g4
((dp43
(dp44
tp45
sg17
(dp46
sg19
(S'self'
p47
tp48
sg22
(dp49
g47
(NNNtp50
ssg25
g26
sg27
S' Turn on Field Derotator [LX 16" and LX200GPS]\n        Returns: Nothing'
p51
sg29
g40
sg30
g7
sg31
g32
sg35
(dp52
sg37
g43
sg38
g44
sg39
g34
sbsS'__init__'
p53
(ihappydoclib.parseinfo.functioninfo
FunctionInfo
p54
(dp55
g4
((dp56
(dp57
tp58
sg17
(dp59
sg19
(S'self'
p60
S'comPort'
p61
S'debug'
p62
tp63
sg22
(dp64
g62
(I1
S'False'
Ntp65
sg60
(NNNtp66
sg61
(NNNtp67
ssg25
g26
sg27
S'Constructor.\n        '
p68
sg29
g53
sg30
g7
sg31
g32
sg35
(dp69
sg37
g56
sg38
g57
sg39
S''
sbstp70
sg25
g26
sg27
S'LX200 class for Derotator movement and properties   \n    \n    '
p71
sS'_class_member_info'
p72
(lp73
sg29
g6
sg30
g2
sg31
g32
sS'_base_class_info'
p74
(lp75
sg35
(dp76
sg37
g9
sg38
g10
sg39
S''
sbs(dp77
tp78
sS'_import_info'
p79
(ihappydoclib.parseinfo.imports
ImportInfo
p80
(dp81
S'_named_imports'
p82
(dp83
sS'_straight_imports'
p84
(lp85
sbsg25
g26
sg27
S''
sg29
S'Derotator'
p86
sg30
Nsg31
g32
sg35
(dp87
S'include_comments'
p88
I1
sS'cacheFilePrefix'
p89
S'.happydoc.'
p90
sS'useCache'
p91
I1
sS'docStringFormat'
p92
S'StructuredText'
p93
ssg37
g5
sg38
g77
sg39
S''
sbt.