(S'20a14c9544c7b55010bcf5e07bc53fc7'
p1
(ihappydoclib.parseinfo.moduleinfo
ModuleInfo
p2
(dp3
S'_namespaces'
p4
((dp5
S'Reticule'
p6
(ihappydoclib.parseinfo.classinfo
ClassInfo
p7
(dp8
g4
((dp9
(dp10
S'setFlashRate'
p11
(ihappydoclib.parseinfo.functioninfo
FunctionInfo
p12
(dp13
g4
((dp14
(dp15
tp16
sS'_exception_info'
p17
(dp18
sS'_parameter_names'
p19
(S'self'
p20
tp21
sS'_parameter_info'
p22
(dp23
g20
(NNNtp24
ssS'_filename'
p25
S'c:\\python24\\lib\\site-packages\\lx200\\Reticule.py'
p26
sS'_docstring'
p27
S''
sS'_name'
p28
g11
sS'_parent'
p29
g7
sS'_comment_info'
p30
(dp31
(S'Reticule'
S'brighter'
tp32
S' B - Reticule/Accessory Control\n'
p33
ssS'_configuration_values'
p34
(dp35
sS'_class_info'
p36
g14
sS'_function_info'
p37
g15
sS'_comments'
p38
S''
sbsS'brighter'
p39
(ihappydoclib.parseinfo.functioninfo
FunctionInfo
p40
(dp41
g4
((dp42
(dp43
tp44
sg17
(dp45
sg19
(S'self'
p46
tp47
sg22
(dp48
g46
(NNNtp49
ssg25
g26
sg27
S''
sg28
g39
sg29
g7
sg30
g31
sg34
(dp50
sg36
g42
sg37
g43
sg38
g33
sbsS'__repr__'
p51
(ihappydoclib.parseinfo.functioninfo
FunctionInfo
p52
(dp53
g4
((dp54
(dp55
tp56
sg17
(dp57
sg19
(S'self'
p58
tp59
sg22
(dp60
g58
(NNNtp61
ssg25
g26
sg27
S'Return a representation string.\n        '
p62
sg28
g51
sg29
g7
sg30
g31
sg34
(dp63
sg36
g54
sg37
g55
sg38
S''
sbsS'setDutyCycle'
p64
(ihappydoclib.parseinfo.functioninfo
FunctionInfo
p65
(dp66
g4
((dp67
(dp68
tp69
sg17
(dp70
sg19
(S'self'
p71
tp72
sg22
(dp73
g71
(NNNtp74
ssg25
g26
sg27
S''
sg28
g64
sg29
g7
sg30
g31
sg34
(dp75
sg36
g67
sg37
g68
sg38
S''
sbsS'__init__'
p76
(ihappydoclib.parseinfo.functioninfo
FunctionInfo
p77
(dp78
g4
((dp79
(dp80
tp81
sg17
(dp82
sg19
(S'self'
p83
S'comPort'
p84
S'debug'
p85
tp86
sg22
(dp87
g85
(I1
S'False'
Ntp88
sg83
(NNNtp89
sg84
(NNNtp90
ssg25
g26
sg27
S'Constructor.\n        Arguments: \n        '
p91
sg28
g76
sg29
g7
sg30
g31
sg34
(dp92
sg36
g79
sg37
g80
sg38
S''
sbsS'darker'
p93
(ihappydoclib.parseinfo.functioninfo
FunctionInfo
p94
(dp95
g4
((dp96
(dp97
tp98
sg17
(dp99
sg19
(S'self'
p100
tp101
sg22
(dp102
g100
(NNNtp103
ssg25
g26
sg27
S''
sg28
g93
sg29
g7
sg30
g31
sg34
(dp104
sg36
g96
sg37
g97
sg38
S''
sbstp105
sg25
g26
sg27
S'LX200 class for Reticule and properties   \n    \n    '
p106
sS'_class_member_info'
p107
(lp108
sg28
g6
sg29
g2
sg30
g31
sS'_base_class_info'
p109
(lp110
sg34
(dp111
sg36
g9
sg37
g10
sg38
S''
sbs(dp112
tp113
sS'_import_info'
p114
(ihappydoclib.parseinfo.imports
ImportInfo
p115
(dp116
S'_named_imports'
p117
(dp118
sS'_straight_imports'
p119
(lp120
sbsg25
g26
sg27
S''
sg28
S'Reticule'
p121
sg29
Nsg30
g31
sg34
(dp122
S'include_comments'
p123
I1
sS'cacheFilePrefix'
p124
S'.happydoc.'
p125
sS'useCache'
p126
I1
sS'docStringFormat'
p127
S'StructuredText'
p128
ssg36
g5
sg37
g112
sg38
S''
sbt.